
bufbomb:     file format elf32-i386


Disassembly of section bstack:

55586000 <_reserved>:
	...

Disassembly of section .interp:

08048174 <.interp>:
 8048174:	2f                   	das    
 8048175:	6c                   	insb   (%dx),%es:(%edi)
 8048176:	69 62 2f 6c 64 2d 6c 	imul   $0x6c2d646c,0x2f(%edx),%esp
 804817d:	69 6e 75 78 2e 73 6f 	imul   $0x6f732e78,0x75(%esi),%ebp
 8048184:	2e 32 00             	xor    %cs:(%eax),%al

Disassembly of section .note.ABI-tag:

08048188 <.note.ABI-tag>:
 8048188:	04 00                	add    $0x0,%al
 804818a:	00 00                	add    %al,(%eax)
 804818c:	10 00                	adc    %al,(%eax)
 804818e:	00 00                	add    %al,(%eax)
 8048190:	01 00                	add    %eax,(%eax)
 8048192:	00 00                	add    %al,(%eax)
 8048194:	47                   	inc    %edi
 8048195:	4e                   	dec    %esi
 8048196:	55                   	push   %ebp
 8048197:	00 00                	add    %al,(%eax)
 8048199:	00 00                	add    %al,(%eax)
 804819b:	00 02                	add    %al,(%edx)
 804819d:	00 00                	add    %al,(%eax)
 804819f:	00 06                	add    %al,(%esi)
 80481a1:	00 00                	add    %al,(%eax)
 80481a3:	00 18                	add    %bl,(%eax)
 80481a5:	00 00                	add    %al,(%eax)
	...

Disassembly of section .note.gnu.build-id:

080481a8 <.note.gnu.build-id>:
 80481a8:	04 00                	add    $0x0,%al
 80481aa:	00 00                	add    %al,(%eax)
 80481ac:	14 00                	adc    $0x0,%al
 80481ae:	00 00                	add    %al,(%eax)
 80481b0:	03 00                	add    (%eax),%eax
 80481b2:	00 00                	add    %al,(%eax)
 80481b4:	47                   	inc    %edi
 80481b5:	4e                   	dec    %esi
 80481b6:	55                   	push   %ebp
 80481b7:	00 c3                	add    %al,%bl
 80481b9:	c5 0d e3 04 d7 3f    	lds    0x3fd704e3,%ecx
 80481bf:	05 ba 75 de 30       	add    $0x30de75ba,%eax
 80481c4:	01 d6                	add    %edx,%esi
 80481c6:	5c                   	pop    %esp
 80481c7:	a5                   	movsl  %ds:(%esi),%es:(%edi)
 80481c8:	c7                   	.byte 0xc7
 80481c9:	85 1e                	test   %ebx,(%esi)
 80481cb:	d1                   	.byte 0xd1

Disassembly of section .gnu.hash:

080481cc <.gnu.hash>:
 80481cc:	03 00                	add    (%eax),%eax
 80481ce:	00 00                	add    %al,(%eax)
 80481d0:	25 00 00 00 01       	and    $0x1000000,%eax
 80481d5:	00 00                	add    %al,(%eax)
 80481d7:	00 05 00 00 00 80    	add    %al,0x80000000
 80481dd:	28 26                	sub    %ah,(%esi)
 80481df:	22 00                	and    (%eax),%al
 80481e1:	00 00                	add    %al,(%eax)
 80481e3:	00 25 00 00 00 28    	add    %ah,0x28000000
 80481e9:	00 00                	add    %al,(%eax)
 80481eb:	00 38                	add    %bh,(%eax)
 80481ed:	f2 8b 1c ac          	repnz mov (%esp,%ebp,4),%ebx
 80481f1:	4b                   	dec    %ebx
 80481f2:	e3 c0                	jecxz  80481b4 <_init-0x610>
 80481f4:	67 55                	addr16 push %ebp
 80481f6:	61                   	popa   
 80481f7:	10                   	.byte 0x10
 80481f8:	b3 a2                	mov    $0xa2,%bl
 80481fa:	f7 12                	notl   (%edx)

Disassembly of section .dynsym:

080481fc <.dynsym>:
	...
 804820c:	bd 00 00 00 00       	mov    $0x0,%ebp
 8048211:	00 00                	add    %al,(%eax)
 8048213:	00 00                	add    %al,(%eax)
 8048215:	00 00                	add    %al,(%eax)
 8048217:	00 12                	add    %dl,(%edx)
 8048219:	00 00                	add    %al,(%eax)
 804821b:	00 17                	add    %dl,(%edi)
 804821d:	01 00                	add    %eax,(%eax)
	...
 8048227:	00 12                	add    %dl,(%edx)
 8048229:	00 00                	add    %al,(%eax)
 804822b:	00 43 00             	add    %al,0x0(%ebx)
	...
 8048236:	00 00                	add    %al,(%eax)
 8048238:	12 00                	adc    (%eax),%al
 804823a:	00 00                	add    %al,(%eax)
 804823c:	92                   	xchg   %eax,%edx
	...
 8048245:	00 00                	add    %al,(%eax)
 8048247:	00 12                	add    %dl,(%edx)
 8048249:	00 00                	add    %al,(%eax)
 804824b:	00 c9                	add    %cl,%cl
	...
 8048255:	00 00                	add    %al,(%eax)
 8048257:	00 12                	add    %dl,(%edx)
 8048259:	00 00                	add    %al,(%eax)
 804825b:	00 68 00             	add    %ch,0x0(%eax)
	...
 8048266:	00 00                	add    %al,(%eax)
 8048268:	12 00                	adc    (%eax),%al
 804826a:	00 00                	add    %al,(%eax)
 804826c:	e9 00 00 00 00       	jmp    8048271 <_init-0x553>
 8048271:	00 00                	add    %al,(%eax)
 8048273:	00 00                	add    %al,(%eax)
 8048275:	00 00                	add    %al,(%eax)
 8048277:	00 12                	add    %dl,(%edx)
 8048279:	00 00                	add    %al,(%eax)
 804827b:	00 74 00 00          	add    %dh,0x0(%eax,%eax,1)
	...
 8048287:	00 12                	add    %dl,(%edx)
 8048289:	00 00                	add    %al,(%eax)
 804828b:	00 2b                	add    %ch,(%ebx)
 804828d:	01 00                	add    %eax,(%eax)
	...
 8048297:	00 12                	add    %dl,(%edx)
 8048299:	00 00                	add    %al,(%eax)
 804829b:	00 3c 00             	add    %bh,(%eax,%eax,1)
	...
 80482a6:	00 00                	add    %al,(%eax)
 80482a8:	12 00                	adc    (%eax),%al
 80482aa:	00 00                	add    %al,(%eax)
 80482ac:	10 01                	adc    %al,(%ecx)
	...
 80482b6:	00 00                	add    %al,(%eax)
 80482b8:	12 00                	adc    (%eax),%al
 80482ba:	00 00                	add    %al,(%eax)
 80482bc:	1f                   	pop    %ds
 80482bd:	01 00                	add    %eax,(%eax)
	...
 80482c7:	00 12                	add    %dl,(%edx)
 80482c9:	00 00                	add    %al,(%eax)
 80482cb:	00 30                	add    %dh,(%eax)
	...
 80482d5:	00 00                	add    %al,(%eax)
 80482d7:	00 12                	add    %dl,(%edx)
 80482d9:	00 00                	add    %al,(%eax)
 80482db:	00 8b 00 00 00 00    	add    %cl,0x0(%ebx)
 80482e1:	00 00                	add    %al,(%eax)
 80482e3:	00 00                	add    %al,(%eax)
 80482e5:	00 00                	add    %al,(%eax)
 80482e7:	00 12                	add    %dl,(%edx)
 80482e9:	00 00                	add    %al,(%eax)
 80482eb:	00 04 01             	add    %al,(%ecx,%eax,1)
	...
 80482f6:	00 00                	add    %al,(%eax)
 80482f8:	12 00                	adc    (%eax),%al
 80482fa:	00 00                	add    %al,(%eax)
 80482fc:	6f                   	outsl  %ds:(%esi),(%dx)
	...
 8048305:	00 00                	add    %al,(%eax)
 8048307:	00 12                	add    %dl,(%edx)
 8048309:	00 00                	add    %al,(%eax)
 804830b:	00 01                	add    %al,(%ecx)
	...
 8048315:	00 00                	add    %al,(%eax)
 8048317:	00 20                	add    %ah,(%eax)
 8048319:	00 00                	add    %al,(%eax)
 804831b:	00 37                	add    %dh,(%edi)
	...
 8048325:	00 00                	add    %al,(%eax)
 8048327:	00 12                	add    %dl,(%edx)
 8048329:	00 00                	add    %al,(%eax)
 804832b:	00 4a 00             	add    %cl,0x0(%edx)
	...
 8048336:	00 00                	add    %al,(%eax)
 8048338:	12 00                	adc    (%eax),%al
 804833a:	00 00                	add    %al,(%eax)
 804833c:	99                   	cltd   
	...
 8048345:	00 00                	add    %al,(%eax)
 8048347:	00 12                	add    %dl,(%edx)
 8048349:	00 00                	add    %al,(%eax)
 804834b:	00 34 01             	add    %dh,(%ecx,%eax,1)
	...
 8048356:	00 00                	add    %al,(%eax)
 8048358:	12 00                	adc    (%eax),%al
 804835a:	00 00                	add    %al,(%eax)
 804835c:	11 01                	adc    %eax,(%ecx)
	...
 8048366:	00 00                	add    %al,(%eax)
 8048368:	12 00                	adc    (%eax),%al
 804836a:	00 00                	add    %al,(%eax)
 804836c:	c2 00 00             	ret    $0x0
	...
 8048377:	00 12                	add    %dl,(%edx)
 8048379:	00 00                	add    %al,(%eax)
 804837b:	00 d0                	add    %dl,%al
	...
 8048385:	00 00                	add    %al,(%eax)
 8048387:	00 12                	add    %dl,(%edx)
 8048389:	00 00                	add    %al,(%eax)
 804838b:	00 50 00             	add    %dl,0x0(%eax)
	...
 8048396:	00 00                	add    %al,(%eax)
 8048398:	12 00                	adc    (%eax),%al
 804839a:	00 00                	add    %al,(%eax)
 804839c:	a5                   	movsl  %ds:(%esi),%es:(%edi)
	...
 80483a5:	00 00                	add    %al,(%eax)
 80483a7:	00 12                	add    %dl,(%edx)
 80483a9:	00 00                	add    %al,(%eax)
 80483ab:	00 ac 00 00 00 00 00 	add    %ch,0x0(%eax,%eax,1)
 80483b2:	00 00                	add    %al,(%eax)
 80483b4:	00 00                	add    %al,(%eax)
 80483b6:	00 00                	add    %al,(%eax)
 80483b8:	12 00                	adc    (%eax),%al
 80483ba:	00 00                	add    %al,(%eax)
 80483bc:	4b                   	dec    %ebx
	...
 80483c5:	00 00                	add    %al,(%eax)
 80483c7:	00 12                	add    %dl,(%edx)
 80483c9:	00 00                	add    %al,(%eax)
 80483cb:	00 ef                	add    %ch,%bh
	...
 80483d5:	00 00                	add    %al,(%eax)
 80483d7:	00 12                	add    %dl,(%edx)
 80483d9:	00 00                	add    %al,(%eax)
 80483db:	00 42 00             	add    %al,0x0(%edx)
	...
 80483e6:	00 00                	add    %al,(%eax)
 80483e8:	12 00                	adc    (%eax),%al
 80483ea:	00 00                	add    %al,(%eax)
 80483ec:	29 00                	sub    %eax,(%eax)
	...
 80483f6:	00 00                	add    %al,(%eax)
 80483f8:	12 00                	adc    (%eax),%al
 80483fa:	00 00                	add    %al,(%eax)
 80483fc:	18 01                	sbb    %al,(%ecx)
	...
 8048406:	00 00                	add    %al,(%eax)
 8048408:	12 00                	adc    (%eax),%al
 804840a:	00 00                	add    %al,(%eax)
 804840c:	f6 00 00             	testb  $0x0,(%eax)
	...
 8048417:	00 12                	add    %dl,(%edx)
 8048419:	00 00                	add    %al,(%eax)
 804841b:	00 60 00             	add    %ah,0x0(%eax)
	...
 8048426:	00 00                	add    %al,(%eax)
 8048428:	12 00                	adc    (%eax),%al
 804842a:	00 00                	add    %al,(%eax)
 804842c:	25 01 00 00 00       	and    $0x1,%eax
 8048431:	00 00                	add    %al,(%eax)
 8048433:	00 00                	add    %al,(%eax)
 8048435:	00 00                	add    %al,(%eax)
 8048437:	00 12                	add    %dl,(%edx)
 8048439:	00 00                	add    %al,(%eax)
 804843b:	00 9e 00 00 00 00    	add    %bl,0x0(%esi)
 8048441:	00 00                	add    %al,(%eax)
 8048443:	00 00                	add    %al,(%eax)
 8048445:	00 00                	add    %al,(%eax)
 8048447:	00 12                	add    %dl,(%edx)
 8048449:	00 00                	add    %al,(%eax)
 804844b:	00 e2                	add    %ah,%dl
 804844d:	00 00                	add    %al,(%eax)
 804844f:	00 e0                	add    %ah,%al
 8048451:	e0 04                	loopne 8048457 <_init-0x36d>
 8048453:	08 04 00             	or     %al,(%eax,%eax,1)
 8048456:	00 00                	add    %al,(%eax)
 8048458:	11 00                	adc    %eax,(%eax)
 804845a:	1a 00                	sbb    (%eax),%al
 804845c:	1a 00                	sbb    (%eax),%al
 804845e:	00 00                	add    %al,(%eax)
 8048460:	ac                   	lods   %ds:(%esi),%al
 8048461:	a5                   	movsl  %ds:(%esi),%es:(%edi)
 8048462:	04 08                	add    $0x8,%al
 8048464:	04 00                	add    $0x0,%al
 8048466:	00 00                	add    %al,(%eax)
 8048468:	11 00                	adc    %eax,(%eax)
 804846a:	10 00                	adc    %al,(%eax)
 804846c:	85 00                	test   %eax,(%eax)
 804846e:	00 00                	add    %al,(%eax)
 8048470:	e4 e0                	in     $0xe0,%al
 8048472:	04 08                	add    $0x8,%al
 8048474:	04 00                	add    $0x0,%al
 8048476:	00 00                	add    %al,(%eax)
 8048478:	11 00                	adc    %eax,(%eax)
 804847a:	1a 00                	sbb    (%eax),%al
 804847c:	db 00                	fildl  (%eax)
 804847e:	00 00                	add    %al,(%eax)
 8048480:	e8 e0 04 08 04       	call   c0c8965 <_end+0x4079c21>
 8048485:	00 00                	add    %al,(%eax)
 8048487:	00 11                	add    %dl,(%ecx)
 8048489:	00 1a                	add    %bl,(%edx)
	...

Disassembly of section .dynstr:

0804848c <.dynstr>:
 804848c:	00 5f 5f             	add    %bl,0x5f(%edi)
 804848f:	67 6d                	insl   (%dx),%es:(%di)
 8048491:	6f                   	outsl  %ds:(%esi),(%dx)
 8048492:	6e                   	outsb  %ds:(%esi),(%dx)
 8048493:	5f                   	pop    %edi
 8048494:	73 74                	jae    804850a <_init-0x2ba>
 8048496:	61                   	popa   
 8048497:	72 74                	jb     804850d <_init-0x2b7>
 8048499:	5f                   	pop    %edi
 804849a:	5f                   	pop    %edi
 804849b:	00 6c 69 62          	add    %ch,0x62(%ecx,%ebp,2)
 804849f:	63 2e                	arpl   %bp,(%esi)
 80484a1:	73 6f                	jae    8048512 <_init-0x2b2>
 80484a3:	2e 36 00 5f 49       	cs add %bl,%cs:%ss:0x49(%edi)
 80484a8:	4f                   	dec    %edi
 80484a9:	5f                   	pop    %edi
 80484aa:	73 74                	jae    8048520 <_init-0x2a4>
 80484ac:	64 69 6e 5f 75 73 65 	imul   $0x64657375,%fs:0x5f(%esi),%ebp
 80484b3:	64 
 80484b4:	00 73 6f             	add    %dh,0x6f(%ebx)
 80484b7:	63 6b 65             	arpl   %bp,0x65(%ebx)
 80484ba:	74 00                	je     80484bc <_init-0x308>
 80484bc:	73 74                	jae    8048532 <_init-0x292>
 80484be:	72 63                	jb     8048523 <_init-0x2a1>
 80484c0:	70 79                	jo     804853b <_init-0x289>
 80484c2:	00 65 78             	add    %ah,0x78(%ebp)
 80484c5:	69 74 00 68 74 6f 6e 	imul   $0x736e6f74,0x68(%eax,%eax,1),%esi
 80484cc:	73 
 80484cd:	00 73 70             	add    %dh,0x70(%ebx)
 80484d0:	72 69                	jb     804853b <_init-0x289>
 80484d2:	6e                   	outsb  %ds:(%esi),(%dx)
 80484d3:	74 66                	je     804853b <_init-0x289>
 80484d5:	00 73 72             	add    %dh,0x72(%ebx)
 80484d8:	61                   	popa   
 80484d9:	6e                   	outsb  %ds:(%esi),(%dx)
 80484da:	64 00 5f 5f          	add    %bl,%fs:0x5f(%edi)
 80484de:	69 73 6f 63 39 39 5f 	imul   $0x5f393963,0x6f(%ebx),%esi
 80484e5:	73 73                	jae    804855a <_init-0x26a>
 80484e7:	63 61 6e             	arpl   %sp,0x6e(%ecx)
 80484ea:	66                   	data16
 80484eb:	00 63 6f             	add    %ah,0x6f(%ebx)
 80484ee:	6e                   	outsb  %ds:(%esi),(%dx)
 80484ef:	6e                   	outsb  %ds:(%esi),(%dx)
 80484f0:	65 63 74 00 73       	arpl   %si,%gs:0x73(%eax,%eax,1)
 80484f5:	69 67 6e 61 6c 00 70 	imul   $0x70006c61,0x6e(%edi),%esp
 80484fc:	75 74                	jne    8048572 <_init-0x252>
 80484fe:	73 00                	jae    8048500 <_init-0x2c4>
 8048500:	5f                   	pop    %edi
 8048501:	5f                   	pop    %edi
 8048502:	73 74                	jae    8048578 <_init-0x24c>
 8048504:	61                   	popa   
 8048505:	63 6b 5f             	arpl   %bp,0x5f(%ebx)
 8048508:	63 68 6b             	arpl   %bp,0x6b(%eax)
 804850b:	5f                   	pop    %edi
 804850c:	66 61                	popaw  
 804850e:	69 6c 00 73 74 64 69 	imul   $0x6e696474,0x73(%eax,%eax,1),%ebp
 8048515:	6e 
 8048516:	00 67 65             	add    %ah,0x65(%edi)
 8048519:	74 70                	je     804858b <_init-0x239>
 804851b:	69 64 00 73 74 72 64 	imul   $0x75647274,0x73(%eax,%eax,1),%esp
 8048522:	75 
 8048523:	70 00                	jo     8048525 <_init-0x29f>
 8048525:	6d                   	insl   (%dx),%es:(%edi)
 8048526:	6d                   	insl   (%dx),%es:(%edi)
 8048527:	61                   	popa   
 8048528:	70 00                	jo     804852a <_init-0x29a>
 804852a:	63 61 6c             	arpl   %sp,0x6c(%ecx)
 804852d:	6c                   	insb   (%dx),%es:(%edi)
 804852e:	6f                   	outsl  %ds:(%esi),(%dx)
 804852f:	63 00                	arpl   %ax,(%eax)
 8048531:	6d                   	insl   (%dx),%es:(%edi)
 8048532:	65                   	gs
 8048533:	6d                   	insl   (%dx),%es:(%edi)
 8048534:	73 65                	jae    804859b <_init-0x229>
 8048536:	74 00                	je     8048538 <_init-0x28c>
 8048538:	5f                   	pop    %edi
 8048539:	5f                   	pop    %edi
 804853a:	65                   	gs
 804853b:	72 72                	jb     80485af <_init-0x215>
 804853d:	6e                   	outsb  %ds:(%esi),(%dx)
 804853e:	6f                   	outsl  %ds:(%esi),(%dx)
 804853f:	5f                   	pop    %edi
 8048540:	6c                   	insb   (%dx),%es:(%edi)
 8048541:	6f                   	outsl  %ds:(%esi),(%dx)
 8048542:	63 61 74             	arpl   %sp,0x74(%ecx)
 8048545:	69 6f 6e 00 72 65 61 	imul   $0x61657200,0x6e(%edi),%ebp
 804854c:	64 00 67 65          	add    %ah,%fs:0x65(%edi)
 8048550:	74 6f                	je     80485c1 <_init-0x203>
 8048552:	70 74                	jo     80485c8 <_init-0x1fc>
 8048554:	00 6d 65             	add    %ch,0x65(%ebp)
 8048557:	6d                   	insl   (%dx),%es:(%edi)
 8048558:	63 70 79             	arpl   %si,0x79(%eax)
 804855b:	00 73 74             	add    %dh,0x74(%ebx)
 804855e:	72 63                	jb     80485c3 <_init-0x201>
 8048560:	61                   	popa   
 8048561:	73 65                	jae    80485c8 <_init-0x1fc>
 8048563:	63 6d 70             	arpl   %bp,0x70(%ebp)
 8048566:	00 6f 70             	add    %ch,0x70(%edi)
 8048569:	74 61                	je     80485cc <_init-0x1f8>
 804856b:	72 67                	jb     80485d4 <_init-0x1f0>
 804856d:	00 73 74             	add    %dh,0x74(%ebx)
 8048570:	64                   	fs
 8048571:	65                   	gs
 8048572:	72 72                	jb     80485e6 <_init-0x1de>
 8048574:	00 61 6c             	add    %ah,0x6c(%ecx)
 8048577:	61                   	popa   
 8048578:	72 6d                	jb     80485e7 <_init-0x1dd>
 804857a:	00 6d 75             	add    %ch,0x75(%ebp)
 804857d:	6e                   	outsb  %ds:(%esi),(%dx)
 804857e:	6d                   	insl   (%dx),%es:(%edi)
 804857f:	61                   	popa   
 8048580:	70 00                	jo     8048582 <_init-0x242>
 8048582:	67                   	addr16
 8048583:	65                   	gs
 8048584:	74 68                	je     80485ee <_init-0x1d6>
 8048586:	6f                   	outsl  %ds:(%esi),(%dx)
 8048587:	73 74                	jae    80485fd <_init-0x1c7>
 8048589:	62 79 6e             	bound  %edi,0x6e(%ecx)
 804858c:	61                   	popa   
 804858d:	6d                   	insl   (%dx),%es:(%edi)
 804858e:	65 00 67 65          	add    %ah,%gs:0x65(%edi)
 8048592:	74 68                	je     80485fc <_init-0x1c8>
 8048594:	6f                   	outsl  %ds:(%esi),(%dx)
 8048595:	73 74                	jae    804860b <_init-0x1b9>
 8048597:	6e                   	outsb  %ds:(%esi),(%dx)
 8048598:	61                   	popa   
 8048599:	6d                   	insl   (%dx),%es:(%edi)
 804859a:	65 00 66 77          	add    %ah,%gs:0x77(%esi)
 804859e:	72 69                	jb     8048609 <_init-0x1bb>
 80485a0:	74 65                	je     8048607 <_init-0x1bd>
 80485a2:	00 73 72             	add    %dh,0x72(%ebx)
 80485a5:	61                   	popa   
 80485a6:	6e                   	outsb  %ds:(%esi),(%dx)
 80485a7:	64 6f                	outsl  %fs:(%esi),(%dx)
 80485a9:	6d                   	insl   (%dx),%es:(%edi)
 80485aa:	00 62 63             	add    %ah,0x63(%edx)
 80485ad:	6f                   	outsl  %ds:(%esi),(%dx)
 80485ae:	70 79                	jo     8048629 <_init-0x19b>
 80485b0:	00 63 6c             	add    %ah,0x6c(%ebx)
 80485b3:	6f                   	outsl  %ds:(%esi),(%dx)
 80485b4:	73 65                	jae    804861b <_init-0x1a9>
 80485b6:	00 5f 49             	add    %bl,0x49(%edi)
 80485b9:	4f                   	dec    %edi
 80485ba:	5f                   	pop    %edi
 80485bb:	67                   	addr16
 80485bc:	65                   	gs
 80485bd:	74 63                	je     8048622 <_init-0x1a2>
 80485bf:	00 5f 5f             	add    %bl,0x5f(%edi)
 80485c2:	6c                   	insb   (%dx),%es:(%edi)
 80485c3:	69 62 63 5f 73 74 61 	imul   $0x6174735f,0x63(%edx),%esp
 80485ca:	72 74                	jb     8048640 <_init-0x184>
 80485cc:	5f                   	pop    %edi
 80485cd:	6d                   	insl   (%dx),%es:(%edi)
 80485ce:	61                   	popa   
 80485cf:	69 6e 00 47 4c 49 42 	imul   $0x42494c47,0x0(%esi),%ebp
 80485d6:	43                   	inc    %ebx
 80485d7:	5f                   	pop    %edi
 80485d8:	32 2e                	xor    (%esi),%ch
 80485da:	37                   	aaa    
 80485db:	00 47 4c             	add    %al,0x4c(%edi)
 80485de:	49                   	dec    %ecx
 80485df:	42                   	inc    %edx
 80485e0:	43                   	inc    %ebx
 80485e1:	5f                   	pop    %edi
 80485e2:	32 2e                	xor    (%esi),%ch
 80485e4:	34 00                	xor    $0x0,%al
 80485e6:	47                   	inc    %edi
 80485e7:	4c                   	dec    %esp
 80485e8:	49                   	dec    %ecx
 80485e9:	42                   	inc    %edx
 80485ea:	43                   	inc    %ebx
 80485eb:	5f                   	pop    %edi
 80485ec:	32 2e                	xor    (%esi),%ch
 80485ee:	30 00                	xor    %al,(%eax)

Disassembly of section .gnu.version:

080485f0 <.gnu.version>:
 80485f0:	00 00                	add    %al,(%eax)
 80485f2:	02 00                	add    (%eax),%al
 80485f4:	02 00                	add    (%eax),%al
 80485f6:	02 00                	add    (%eax),%al
 80485f8:	02 00                	add    (%eax),%al
 80485fa:	02 00                	add    (%eax),%al
 80485fc:	02 00                	add    (%eax),%al
 80485fe:	02 00                	add    (%eax),%al
 8048600:	03 00                	add    (%eax),%eax
 8048602:	02 00                	add    (%eax),%al
 8048604:	02 00                	add    (%eax),%al
 8048606:	02 00                	add    (%eax),%al
 8048608:	02 00                	add    (%eax),%al
 804860a:	02 00                	add    (%eax),%al
 804860c:	02 00                	add    (%eax),%al
 804860e:	02 00                	add    (%eax),%al
 8048610:	02 00                	add    (%eax),%al
 8048612:	00 00                	add    %al,(%eax)
 8048614:	02 00                	add    (%eax),%al
 8048616:	02 00                	add    (%eax),%al
 8048618:	02 00                	add    (%eax),%al
 804861a:	02 00                	add    (%eax),%al
 804861c:	02 00                	add    (%eax),%al
 804861e:	02 00                	add    (%eax),%al
 8048620:	02 00                	add    (%eax),%al
 8048622:	04 00                	add    $0x0,%al
 8048624:	02 00                	add    (%eax),%al
 8048626:	02 00                	add    (%eax),%al
 8048628:	02 00                	add    (%eax),%al
 804862a:	02 00                	add    (%eax),%al
 804862c:	02 00                	add    (%eax),%al
 804862e:	02 00                	add    (%eax),%al
 8048630:	02 00                	add    (%eax),%al
 8048632:	02 00                	add    (%eax),%al
 8048634:	02 00                	add    (%eax),%al
 8048636:	02 00                	add    (%eax),%al
 8048638:	02 00                	add    (%eax),%al
 804863a:	02 00                	add    (%eax),%al
 804863c:	01 00                	add    %eax,(%eax)
 804863e:	02 00                	add    (%eax),%al
 8048640:	02 00                	add    (%eax),%al

Disassembly of section .gnu.version_r:

08048644 <.gnu.version_r>:
 8048644:	01 00                	add    %eax,(%eax)
 8048646:	03 00                	add    (%eax),%eax
 8048648:	10 00                	adc    %al,(%eax)
 804864a:	00 00                	add    %al,(%eax)
 804864c:	10 00                	adc    %al,(%eax)
 804864e:	00 00                	add    %al,(%eax)
 8048650:	00 00                	add    %al,(%eax)
 8048652:	00 00                	add    %al,(%eax)
 8048654:	17                   	pop    %ss
 8048655:	69 69 0d 00 00 04 00 	imul   $0x40000,0xd(%ecx),%ebp
 804865c:	46                   	inc    %esi
 804865d:	01 00                	add    %eax,(%eax)
 804865f:	00 10                	add    %dl,(%eax)
 8048661:	00 00                	add    %al,(%eax)
 8048663:	00 14 69             	add    %dl,(%ecx,%ebp,2)
 8048666:	69 0d 00 00 03 00 50 	imul   $0x150,0x30000,%ecx
 804866d:	01 00 00 
 8048670:	10 00                	adc    %al,(%eax)
 8048672:	00 00                	add    %al,(%eax)
 8048674:	10 69 69             	adc    %ch,0x69(%ecx)
 8048677:	0d 00 00 02 00       	or     $0x20000,%eax
 804867c:	5a                   	pop    %edx
 804867d:	01 00                	add    %eax,(%eax)
 804867f:	00 00                	add    %al,(%eax)
 8048681:	00 00                	add    %al,(%eax)
	...

Disassembly of section .rel.dyn:

08048684 <.rel.dyn>:
 8048684:	f0 cf                	lock iret 
 8048686:	04 08                	add    $0x8,%al
 8048688:	06                   	push   %es
 8048689:	11 00                	adc    %eax,(%eax)
 804868b:	00 e0                	add    %ah,%al
 804868d:	e0 04                	loopne 8048693 <_init-0x131>
 804868f:	08 05 25 00 00 e4    	or     %al,0xe4000025
 8048695:	e0 04                	loopne 804869b <_init-0x129>
 8048697:	08 05 27 00 00 e8    	or     %al,0xe8000027
 804869d:	e0 04                	loopne 80486a3 <_init-0x121>
 804869f:	08                   	.byte 0x8
 80486a0:	05                   	.byte 0x5
 80486a1:	28 00                	sub    %al,(%eax)
	...

Disassembly of section .rel.plt:

080486a4 <.rel.plt>:
 80486a4:	00 d0                	add    %dl,%al
 80486a6:	04 08                	add    $0x8,%al
 80486a8:	07                   	pop    %es
 80486a9:	01 00                	add    %eax,(%eax)
 80486ab:	00 04 d0             	add    %al,(%eax,%edx,8)
 80486ae:	04 08                	add    $0x8,%al
 80486b0:	07                   	pop    %es
 80486b1:	02 00                	add    (%eax),%al
 80486b3:	00 08                	add    %cl,(%eax)
 80486b5:	d0 04 08             	rolb   (%eax,%ecx,1)
 80486b8:	07                   	pop    %es
 80486b9:	03 00                	add    (%eax),%eax
 80486bb:	00 0c d0             	add    %cl,(%eax,%edx,8)
 80486be:	04 08                	add    $0x8,%al
 80486c0:	07                   	pop    %es
 80486c1:	04 00                	add    $0x0,%al
 80486c3:	00 10                	add    %dl,(%eax)
 80486c5:	d0 04 08             	rolb   (%eax,%ecx,1)
 80486c8:	07                   	pop    %es
 80486c9:	05 00 00 14 d0       	add    $0xd0140000,%eax
 80486ce:	04 08                	add    $0x8,%al
 80486d0:	07                   	pop    %es
 80486d1:	06                   	push   %es
 80486d2:	00 00                	add    %al,(%eax)
 80486d4:	18 d0                	sbb    %dl,%al
 80486d6:	04 08                	add    $0x8,%al
 80486d8:	07                   	pop    %es
 80486d9:	07                   	pop    %es
 80486da:	00 00                	add    %al,(%eax)
 80486dc:	1c d0                	sbb    $0xd0,%al
 80486de:	04 08                	add    $0x8,%al
 80486e0:	07                   	pop    %es
 80486e1:	08 00                	or     %al,(%eax)
 80486e3:	00 20                	add    %ah,(%eax)
 80486e5:	d0 04 08             	rolb   (%eax,%ecx,1)
 80486e8:	07                   	pop    %es
 80486e9:	09 00                	or     %eax,(%eax)
 80486eb:	00 24 d0             	add    %ah,(%eax,%edx,8)
 80486ee:	04 08                	add    $0x8,%al
 80486f0:	07                   	pop    %es
 80486f1:	0a 00                	or     (%eax),%al
 80486f3:	00 28                	add    %ch,(%eax)
 80486f5:	d0 04 08             	rolb   (%eax,%ecx,1)
 80486f8:	07                   	pop    %es
 80486f9:	0b 00                	or     (%eax),%eax
 80486fb:	00 2c d0             	add    %ch,(%eax,%edx,8)
 80486fe:	04 08                	add    $0x8,%al
 8048700:	07                   	pop    %es
 8048701:	0c 00                	or     $0x0,%al
 8048703:	00 30                	add    %dh,(%eax)
 8048705:	d0 04 08             	rolb   (%eax,%ecx,1)
 8048708:	07                   	pop    %es
 8048709:	0d 00 00 34 d0       	or     $0xd0340000,%eax
 804870e:	04 08                	add    $0x8,%al
 8048710:	07                   	pop    %es
 8048711:	0e                   	push   %cs
 8048712:	00 00                	add    %al,(%eax)
 8048714:	38 d0                	cmp    %dl,%al
 8048716:	04 08                	add    $0x8,%al
 8048718:	07                   	pop    %es
 8048719:	0f 00 00             	sldt   (%eax)
 804871c:	3c d0                	cmp    $0xd0,%al
 804871e:	04 08                	add    $0x8,%al
 8048720:	07                   	pop    %es
 8048721:	10 00                	adc    %al,(%eax)
 8048723:	00 40 d0             	add    %al,-0x30(%eax)
 8048726:	04 08                	add    $0x8,%al
 8048728:	07                   	pop    %es
 8048729:	11 00                	adc    %eax,(%eax)
 804872b:	00 44 d0 04          	add    %al,0x4(%eax,%edx,8)
 804872f:	08 07                	or     %al,(%edi)
 8048731:	12 00                	adc    (%eax),%al
 8048733:	00 48 d0             	add    %cl,-0x30(%eax)
 8048736:	04 08                	add    $0x8,%al
 8048738:	07                   	pop    %es
 8048739:	13 00                	adc    (%eax),%eax
 804873b:	00 4c d0 04          	add    %cl,0x4(%eax,%edx,8)
 804873f:	08 07                	or     %al,(%edi)
 8048741:	14 00                	adc    $0x0,%al
 8048743:	00 50 d0             	add    %dl,-0x30(%eax)
 8048746:	04 08                	add    $0x8,%al
 8048748:	07                   	pop    %es
 8048749:	15 00 00 54 d0       	adc    $0xd0540000,%eax
 804874e:	04 08                	add    $0x8,%al
 8048750:	07                   	pop    %es
 8048751:	16                   	push   %ss
 8048752:	00 00                	add    %al,(%eax)
 8048754:	58                   	pop    %eax
 8048755:	d0 04 08             	rolb   (%eax,%ecx,1)
 8048758:	07                   	pop    %es
 8048759:	17                   	pop    %ss
 804875a:	00 00                	add    %al,(%eax)
 804875c:	5c                   	pop    %esp
 804875d:	d0 04 08             	rolb   (%eax,%ecx,1)
 8048760:	07                   	pop    %es
 8048761:	18 00                	sbb    %al,(%eax)
 8048763:	00 60 d0             	add    %ah,-0x30(%eax)
 8048766:	04 08                	add    $0x8,%al
 8048768:	07                   	pop    %es
 8048769:	19 00                	sbb    %eax,(%eax)
 804876b:	00 64 d0 04          	add    %ah,0x4(%eax,%edx,8)
 804876f:	08 07                	or     %al,(%edi)
 8048771:	1a 00                	sbb    (%eax),%al
 8048773:	00 68 d0             	add    %ch,-0x30(%eax)
 8048776:	04 08                	add    $0x8,%al
 8048778:	07                   	pop    %es
 8048779:	1b 00                	sbb    (%eax),%eax
 804877b:	00 6c d0 04          	add    %ch,0x4(%eax,%edx,8)
 804877f:	08 07                	or     %al,(%edi)
 8048781:	1c 00                	sbb    $0x0,%al
 8048783:	00 70 d0             	add    %dh,-0x30(%eax)
 8048786:	04 08                	add    $0x8,%al
 8048788:	07                   	pop    %es
 8048789:	1d 00 00 74 d0       	sbb    $0xd0740000,%eax
 804878e:	04 08                	add    $0x8,%al
 8048790:	07                   	pop    %es
 8048791:	1e                   	push   %ds
 8048792:	00 00                	add    %al,(%eax)
 8048794:	78 d0                	js     8048766 <_init-0x5e>
 8048796:	04 08                	add    $0x8,%al
 8048798:	07                   	pop    %es
 8048799:	1f                   	pop    %ds
 804879a:	00 00                	add    %al,(%eax)
 804879c:	7c d0                	jl     804876e <_init-0x56>
 804879e:	04 08                	add    $0x8,%al
 80487a0:	07                   	pop    %es
 80487a1:	20 00                	and    %al,(%eax)
 80487a3:	00 80 d0 04 08 07    	add    %al,0x70804d0(%eax)
 80487a9:	21 00                	and    %eax,(%eax)
 80487ab:	00 84 d0 04 08 07 22 	add    %al,0x22070804(%eax,%edx,8)
 80487b2:	00 00                	add    %al,(%eax)
 80487b4:	88 d0                	mov    %dl,%al
 80487b6:	04 08                	add    $0x8,%al
 80487b8:	07                   	pop    %es
 80487b9:	23 00                	and    (%eax),%eax
 80487bb:	00 8c d0 04 08 07 24 	add    %cl,0x24070804(%eax,%edx,8)
	...

Disassembly of section .init:

080487c4 <_init>:
 80487c4:	53                   	push   %ebx
 80487c5:	83 ec 08             	sub    $0x8,%esp
 80487c8:	e8 00 00 00 00       	call   80487cd <_init+0x9>
 80487cd:	5b                   	pop    %ebx
 80487ce:	81 c3 27 48 00 00    	add    $0x4827,%ebx
 80487d4:	8b 83 fc ff ff ff    	mov    -0x4(%ebx),%eax
 80487da:	85 c0                	test   %eax,%eax
 80487dc:	74 05                	je     80487e3 <_init+0x1f>
 80487de:	e8 2d 01 00 00       	call   8048910 <__gmon_start__@plt>
 80487e3:	e8 f8 02 00 00       	call   8048ae0 <frame_dummy>
 80487e8:	e8 73 1d 00 00       	call   804a560 <__do_global_ctors_aux>
 80487ed:	83 c4 08             	add    $0x8,%esp
 80487f0:	5b                   	pop    %ebx
 80487f1:	c3                   	ret    

Disassembly of section .plt:

08048800 <read@plt-0x10>:
 8048800:	ff 35 f8 cf 04 08    	pushl  0x804cff8
 8048806:	ff 25 fc cf 04 08    	jmp    *0x804cffc
 804880c:	00 00                	add    %al,(%eax)
	...

08048810 <read@plt>:
 8048810:	ff 25 00 d0 04 08    	jmp    *0x804d000
 8048816:	68 00 00 00 00       	push   $0x0
 804881b:	e9 e0 ff ff ff       	jmp    8048800 <_init+0x3c>

08048820 <srandom@plt>:
 8048820:	ff 25 04 d0 04 08    	jmp    *0x804d004
 8048826:	68 08 00 00 00       	push   $0x8
 804882b:	e9 d0 ff ff ff       	jmp    8048800 <_init+0x3c>

08048830 <printf@plt>:
 8048830:	ff 25 08 d0 04 08    	jmp    *0x804d008
 8048836:	68 10 00 00 00       	push   $0x10
 804883b:	e9 c0 ff ff ff       	jmp    8048800 <_init+0x3c>

08048840 <strdup@plt>:
 8048840:	ff 25 0c d0 04 08    	jmp    *0x804d00c
 8048846:	68 18 00 00 00       	push   $0x18
 804884b:	e9 b0 ff ff ff       	jmp    8048800 <_init+0x3c>

08048850 <memcpy@plt>:
 8048850:	ff 25 10 d0 04 08    	jmp    *0x804d010
 8048856:	68 20 00 00 00       	push   $0x20
 804885b:	e9 a0 ff ff ff       	jmp    8048800 <_init+0x3c>

08048860 <signal@plt>:
 8048860:	ff 25 14 d0 04 08    	jmp    *0x804d014
 8048866:	68 28 00 00 00       	push   $0x28
 804886b:	e9 90 ff ff ff       	jmp    8048800 <_init+0x3c>

08048870 <alarm@plt>:
 8048870:	ff 25 18 d0 04 08    	jmp    *0x804d018
 8048876:	68 30 00 00 00       	push   $0x30
 804887b:	e9 80 ff ff ff       	jmp    8048800 <_init+0x3c>

08048880 <__stack_chk_fail@plt>:
 8048880:	ff 25 1c d0 04 08    	jmp    *0x804d01c
 8048886:	68 38 00 00 00       	push   $0x38
 804888b:	e9 70 ff ff ff       	jmp    8048800 <_init+0x3c>

08048890 <_IO_getc@plt>:
 8048890:	ff 25 20 d0 04 08    	jmp    *0x804d020
 8048896:	68 40 00 00 00       	push   $0x40
 804889b:	e9 60 ff ff ff       	jmp    8048800 <_init+0x3c>

080488a0 <htons@plt>:
 80488a0:	ff 25 24 d0 04 08    	jmp    *0x804d024
 80488a6:	68 48 00 00 00       	push   $0x48
 80488ab:	e9 50 ff ff ff       	jmp    8048800 <_init+0x3c>

080488b0 <fwrite@plt>:
 80488b0:	ff 25 28 d0 04 08    	jmp    *0x804d028
 80488b6:	68 50 00 00 00       	push   $0x50
 80488bb:	e9 40 ff ff ff       	jmp    8048800 <_init+0x3c>

080488c0 <bcopy@plt>:
 80488c0:	ff 25 2c d0 04 08    	jmp    *0x804d02c
 80488c6:	68 58 00 00 00       	push   $0x58
 80488cb:	e9 30 ff ff ff       	jmp    8048800 <_init+0x3c>

080488d0 <strcpy@plt>:
 80488d0:	ff 25 30 d0 04 08    	jmp    *0x804d030
 80488d6:	68 60 00 00 00       	push   $0x60
 80488db:	e9 20 ff ff ff       	jmp    8048800 <_init+0x3c>

080488e0 <getpid@plt>:
 80488e0:	ff 25 34 d0 04 08    	jmp    *0x804d034
 80488e6:	68 68 00 00 00       	push   $0x68
 80488eb:	e9 10 ff ff ff       	jmp    8048800 <_init+0x3c>

080488f0 <gethostname@plt>:
 80488f0:	ff 25 38 d0 04 08    	jmp    *0x804d038
 80488f6:	68 70 00 00 00       	push   $0x70
 80488fb:	e9 00 ff ff ff       	jmp    8048800 <_init+0x3c>

08048900 <puts@plt>:
 8048900:	ff 25 3c d0 04 08    	jmp    *0x804d03c
 8048906:	68 78 00 00 00       	push   $0x78
 804890b:	e9 f0 fe ff ff       	jmp    8048800 <_init+0x3c>

08048910 <__gmon_start__@plt>:
 8048910:	ff 25 40 d0 04 08    	jmp    *0x804d040
 8048916:	68 80 00 00 00       	push   $0x80
 804891b:	e9 e0 fe ff ff       	jmp    8048800 <_init+0x3c>

08048920 <exit@plt>:
 8048920:	ff 25 44 d0 04 08    	jmp    *0x804d044
 8048926:	68 88 00 00 00       	push   $0x88
 804892b:	e9 d0 fe ff ff       	jmp    8048800 <_init+0x3c>

08048930 <srand@plt>:
 8048930:	ff 25 48 d0 04 08    	jmp    *0x804d048
 8048936:	68 90 00 00 00       	push   $0x90
 804893b:	e9 c0 fe ff ff       	jmp    8048800 <_init+0x3c>

08048940 <mmap@plt>:
 8048940:	ff 25 4c d0 04 08    	jmp    *0x804d04c
 8048946:	68 98 00 00 00       	push   $0x98
 804894b:	e9 b0 fe ff ff       	jmp    8048800 <_init+0x3c>

08048950 <__libc_start_main@plt>:
 8048950:	ff 25 50 d0 04 08    	jmp    *0x804d050
 8048956:	68 a0 00 00 00       	push   $0xa0
 804895b:	e9 a0 fe ff ff       	jmp    8048800 <_init+0x3c>

08048960 <write@plt>:
 8048960:	ff 25 54 d0 04 08    	jmp    *0x804d054
 8048966:	68 a8 00 00 00       	push   $0xa8
 804896b:	e9 90 fe ff ff       	jmp    8048800 <_init+0x3c>

08048970 <getopt@plt>:
 8048970:	ff 25 58 d0 04 08    	jmp    *0x804d058
 8048976:	68 b0 00 00 00       	push   $0xb0
 804897b:	e9 80 fe ff ff       	jmp    8048800 <_init+0x3c>

08048980 <strcasecmp@plt>:
 8048980:	ff 25 5c d0 04 08    	jmp    *0x804d05c
 8048986:	68 b8 00 00 00       	push   $0xb8
 804898b:	e9 70 fe ff ff       	jmp    8048800 <_init+0x3c>

08048990 <__isoc99_sscanf@plt>:
 8048990:	ff 25 60 d0 04 08    	jmp    *0x804d060
 8048996:	68 c0 00 00 00       	push   $0xc0
 804899b:	e9 60 fe ff ff       	jmp    8048800 <_init+0x3c>

080489a0 <memset@plt>:
 80489a0:	ff 25 64 d0 04 08    	jmp    *0x804d064
 80489a6:	68 c8 00 00 00       	push   $0xc8
 80489ab:	e9 50 fe ff ff       	jmp    8048800 <_init+0x3c>

080489b0 <__errno_location@plt>:
 80489b0:	ff 25 68 d0 04 08    	jmp    *0x804d068
 80489b6:	68 d0 00 00 00       	push   $0xd0
 80489bb:	e9 40 fe ff ff       	jmp    8048800 <_init+0x3c>

080489c0 <rand@plt>:
 80489c0:	ff 25 6c d0 04 08    	jmp    *0x804d06c
 80489c6:	68 d8 00 00 00       	push   $0xd8
 80489cb:	e9 30 fe ff ff       	jmp    8048800 <_init+0x3c>

080489d0 <munmap@plt>:
 80489d0:	ff 25 70 d0 04 08    	jmp    *0x804d070
 80489d6:	68 e0 00 00 00       	push   $0xe0
 80489db:	e9 20 fe ff ff       	jmp    8048800 <_init+0x3c>

080489e0 <sprintf@plt>:
 80489e0:	ff 25 74 d0 04 08    	jmp    *0x804d074
 80489e6:	68 e8 00 00 00       	push   $0xe8
 80489eb:	e9 10 fe ff ff       	jmp    8048800 <_init+0x3c>

080489f0 <socket@plt>:
 80489f0:	ff 25 78 d0 04 08    	jmp    *0x804d078
 80489f6:	68 f0 00 00 00       	push   $0xf0
 80489fb:	e9 00 fe ff ff       	jmp    8048800 <_init+0x3c>

08048a00 <random@plt>:
 8048a00:	ff 25 7c d0 04 08    	jmp    *0x804d07c
 8048a06:	68 f8 00 00 00       	push   $0xf8
 8048a0b:	e9 f0 fd ff ff       	jmp    8048800 <_init+0x3c>

08048a10 <gethostbyname@plt>:
 8048a10:	ff 25 80 d0 04 08    	jmp    *0x804d080
 8048a16:	68 00 01 00 00       	push   $0x100
 8048a1b:	e9 e0 fd ff ff       	jmp    8048800 <_init+0x3c>

08048a20 <connect@plt>:
 8048a20:	ff 25 84 d0 04 08    	jmp    *0x804d084
 8048a26:	68 08 01 00 00       	push   $0x108
 8048a2b:	e9 d0 fd ff ff       	jmp    8048800 <_init+0x3c>

08048a30 <close@plt>:
 8048a30:	ff 25 88 d0 04 08    	jmp    *0x804d088
 8048a36:	68 10 01 00 00       	push   $0x110
 8048a3b:	e9 c0 fd ff ff       	jmp    8048800 <_init+0x3c>

08048a40 <calloc@plt>:
 8048a40:	ff 25 8c d0 04 08    	jmp    *0x804d08c
 8048a46:	68 18 01 00 00       	push   $0x118
 8048a4b:	e9 b0 fd ff ff       	jmp    8048800 <_init+0x3c>

Disassembly of section .text:

08048a50 <_start>:
 8048a50:	31 ed                	xor    %ebp,%ebp
 8048a52:	5e                   	pop    %esi
 8048a53:	89 e1                	mov    %esp,%ecx
 8048a55:	83 e4 f0             	and    $0xfffffff0,%esp
 8048a58:	50                   	push   %eax
 8048a59:	54                   	push   %esp
 8048a5a:	52                   	push   %edx
 8048a5b:	68 50 a5 04 08       	push   $0x804a550
 8048a60:	68 e0 a4 04 08       	push   $0x804a4e0
 8048a65:	51                   	push   %ecx
 8048a66:	56                   	push   %esi
 8048a67:	68 3d 90 04 08       	push   $0x804903d
 8048a6c:	e8 df fe ff ff       	call   8048950 <__libc_start_main@plt>
 8048a71:	f4                   	hlt    
 8048a72:	90                   	nop
 8048a73:	90                   	nop
 8048a74:	90                   	nop
 8048a75:	90                   	nop
 8048a76:	90                   	nop
 8048a77:	90                   	nop
 8048a78:	90                   	nop
 8048a79:	90                   	nop
 8048a7a:	90                   	nop
 8048a7b:	90                   	nop
 8048a7c:	90                   	nop
 8048a7d:	90                   	nop
 8048a7e:	90                   	nop
 8048a7f:	90                   	nop

08048a80 <__do_global_dtors_aux>:
 8048a80:	55                   	push   %ebp
 8048a81:	89 e5                	mov    %esp,%ebp
 8048a83:	53                   	push   %ebx
 8048a84:	83 ec 04             	sub    $0x4,%esp
 8048a87:	80 3d ec e0 04 08 00 	cmpb   $0x0,0x804e0ec
 8048a8e:	75 3f                	jne    8048acf <__do_global_dtors_aux+0x4f>
 8048a90:	a1 f0 e0 04 08       	mov    0x804e0f0,%eax
 8048a95:	bb 20 cf 04 08       	mov    $0x804cf20,%ebx
 8048a9a:	81 eb 1c cf 04 08    	sub    $0x804cf1c,%ebx
 8048aa0:	c1 fb 02             	sar    $0x2,%ebx
 8048aa3:	83 eb 01             	sub    $0x1,%ebx
 8048aa6:	39 d8                	cmp    %ebx,%eax
 8048aa8:	73 1e                	jae    8048ac8 <__do_global_dtors_aux+0x48>
 8048aaa:	8d b6 00 00 00 00    	lea    0x0(%esi),%esi
 8048ab0:	83 c0 01             	add    $0x1,%eax
 8048ab3:	a3 f0 e0 04 08       	mov    %eax,0x804e0f0
 8048ab8:	ff 14 85 1c cf 04 08 	call   *0x804cf1c(,%eax,4)
 8048abf:	a1 f0 e0 04 08       	mov    0x804e0f0,%eax
 8048ac4:	39 d8                	cmp    %ebx,%eax
 8048ac6:	72 e8                	jb     8048ab0 <__do_global_dtors_aux+0x30>
 8048ac8:	c6 05 ec e0 04 08 01 	movb   $0x1,0x804e0ec
 8048acf:	83 c4 04             	add    $0x4,%esp
 8048ad2:	5b                   	pop    %ebx
 8048ad3:	5d                   	pop    %ebp
 8048ad4:	c3                   	ret    
 8048ad5:	8d 74 26 00          	lea    0x0(%esi,%eiz,1),%esi
 8048ad9:	8d bc 27 00 00 00 00 	lea    0x0(%edi,%eiz,1),%edi

08048ae0 <frame_dummy>:
 8048ae0:	55                   	push   %ebp
 8048ae1:	89 e5                	mov    %esp,%ebp
 8048ae3:	83 ec 18             	sub    $0x18,%esp
 8048ae6:	a1 24 cf 04 08       	mov    0x804cf24,%eax
 8048aeb:	85 c0                	test   %eax,%eax
 8048aed:	74 12                	je     8048b01 <frame_dummy+0x21>
 8048aef:	b8 00 00 00 00       	mov    $0x0,%eax
 8048af4:	85 c0                	test   %eax,%eax
 8048af6:	74 09                	je     8048b01 <frame_dummy+0x21>
 8048af8:	c7 04 24 24 cf 04 08 	movl   $0x804cf24,(%esp)
 8048aff:	ff d0                	call   *%eax
 8048b01:	c9                   	leave  
 8048b02:	c3                   	ret    
 8048b03:	90                   	nop

08048b04 <smoke>:
 8048b04:	55                   	push   %ebp
 8048b05:	89 e5                	mov    %esp,%ebp
 8048b07:	83 ec 18             	sub    $0x18,%esp
 8048b0a:	c7 04 24 b0 a5 04 08 	movl   $0x804a5b0,(%esp)
 8048b11:	e8 ea fd ff ff       	call   8048900 <puts@plt>
 8048b16:	c7 04 24 00 00 00 00 	movl   $0x0,(%esp)
 8048b1d:	e8 0c 09 00 00       	call   804942e <validate>
 8048b22:	c7 04 24 00 00 00 00 	movl   $0x0,(%esp)
 8048b29:	e8 f2 fd ff ff       	call   8048920 <exit@plt>

08048b2e <fizz>:
 8048b2e:	55                   	push   %ebp
 8048b2f:	89 e5                	mov    %esp,%ebp
 8048b31:	83 ec 18             	sub    $0x18,%esp
 8048b34:	8b 55 08             	mov    0x8(%ebp),%edx
 8048b37:	a1 04 e1 04 08       	mov    0x804e104,%eax
 8048b3c:	39 c2                	cmp    %eax,%edx
 8048b3e:	75 22                	jne    8048b62 <fizz+0x34>
 8048b40:	b8 cb a5 04 08       	mov    $0x804a5cb,%eax
 8048b45:	8b 55 08             	mov    0x8(%ebp),%edx
 8048b48:	89 54 24 04          	mov    %edx,0x4(%esp)
 8048b4c:	89 04 24             	mov    %eax,(%esp)
 8048b4f:	e8 dc fc ff ff       	call   8048830 <printf@plt>
 8048b54:	c7 04 24 01 00 00 00 	movl   $0x1,(%esp)
 8048b5b:	e8 ce 08 00 00       	call   804942e <validate>
 8048b60:	eb 14                	jmp    8048b76 <fizz+0x48>
 8048b62:	b8 ec a5 04 08       	mov    $0x804a5ec,%eax
 8048b67:	8b 55 08             	mov    0x8(%ebp),%edx
 8048b6a:	89 54 24 04          	mov    %edx,0x4(%esp)
 8048b6e:	89 04 24             	mov    %eax,(%esp)
 8048b71:	e8 ba fc ff ff       	call   8048830 <printf@plt>
 8048b76:	c7 04 24 00 00 00 00 	movl   $0x0,(%esp)
 8048b7d:	e8 9e fd ff ff       	call   8048920 <exit@plt>

08048b82 <bang>:
 8048b82:	55                   	push   %ebp
 8048b83:	89 e5                	mov    %esp,%ebp
 8048b85:	83 ec 18             	sub    $0x18,%esp
 8048b88:	a1 0c e1 04 08       	mov    0x804e10c,%eax
 8048b8d:	89 c2                	mov    %eax,%edx
 8048b8f:	a1 04 e1 04 08       	mov    0x804e104,%eax
 8048b94:	39 c2                	cmp    %eax,%edx
 8048b96:	75 25                	jne    8048bbd <bang+0x3b>
 8048b98:	8b 15 0c e1 04 08    	mov    0x804e10c,%edx
 8048b9e:	b8 0c a6 04 08       	mov    $0x804a60c,%eax
 8048ba3:	89 54 24 04          	mov    %edx,0x4(%esp)
 8048ba7:	89 04 24             	mov    %eax,(%esp)
 8048baa:	e8 81 fc ff ff       	call   8048830 <printf@plt>
 8048baf:	c7 04 24 02 00 00 00 	movl   $0x2,(%esp)
 8048bb6:	e8 73 08 00 00       	call   804942e <validate>
 8048bbb:	eb 17                	jmp    8048bd4 <bang+0x52>
 8048bbd:	8b 15 0c e1 04 08    	mov    0x804e10c,%edx
 8048bc3:	b8 31 a6 04 08       	mov    $0x804a631,%eax
 8048bc8:	89 54 24 04          	mov    %edx,0x4(%esp)
 8048bcc:	89 04 24             	mov    %eax,(%esp)
 8048bcf:	e8 5c fc ff ff       	call   8048830 <printf@plt>
 8048bd4:	c7 04 24 00 00 00 00 	movl   $0x0,(%esp)
 8048bdb:	e8 40 fd ff ff       	call   8048920 <exit@plt>

08048be0 <test>:
 8048be0:	55                   	push   %ebp
 8048be1:	89 e5                	mov    %esp,%ebp
 8048be3:	83 ec 28             	sub    $0x28,%esp
 8048be6:	e8 38 04 00 00       	call   8049023 <uniqueval>
 8048beb:	89 45 f0             	mov    %eax,-0x10(%ebp)
 8048bee:	e8 91 06 00 00       	call   8049284 <getbuf>
 8048bf3:	89 45 f4             	mov    %eax,-0xc(%ebp)
 8048bf6:	e8 28 04 00 00       	call   8049023 <uniqueval>
 8048bfb:	8b 55 f0             	mov    -0x10(%ebp),%edx
 8048bfe:	39 d0                	cmp    %edx,%eax
 8048c00:	74 0e                	je     8048c10 <test+0x30>
 8048c02:	c7 04 24 50 a6 04 08 	movl   $0x804a650,(%esp)
 8048c09:	e8 f2 fc ff ff       	call   8048900 <puts@plt>
 8048c0e:	eb 42                	jmp    8048c52 <test+0x72>
 8048c10:	8b 55 f4             	mov    -0xc(%ebp),%edx
 8048c13:	a1 04 e1 04 08       	mov    0x804e104,%eax
 8048c18:	39 c2                	cmp    %eax,%edx
 8048c1a:	75 22                	jne    8048c3e <test+0x5e>
 8048c1c:	b8 79 a6 04 08       	mov    $0x804a679,%eax
 8048c21:	8b 55 f4             	mov    -0xc(%ebp),%edx
 8048c24:	89 54 24 04          	mov    %edx,0x4(%esp)
 8048c28:	89 04 24             	mov    %eax,(%esp)
 8048c2b:	e8 00 fc ff ff       	call   8048830 <printf@plt>
 8048c30:	c7 04 24 03 00 00 00 	movl   $0x3,(%esp)
 8048c37:	e8 f2 07 00 00       	call   804942e <validate>
 8048c3c:	eb 14                	jmp    8048c52 <test+0x72>
 8048c3e:	b8 96 a6 04 08       	mov    $0x804a696,%eax
 8048c43:	8b 55 f4             	mov    -0xc(%ebp),%edx
 8048c46:	89 54 24 04          	mov    %edx,0x4(%esp)
 8048c4a:	89 04 24             	mov    %eax,(%esp)
 8048c4d:	e8 de fb ff ff       	call   8048830 <printf@plt>
 8048c52:	c9                   	leave  
 8048c53:	c3                   	ret    

08048c54 <testn>:
 8048c54:	55                   	push   %ebp
 8048c55:	89 e5                	mov    %esp,%ebp
 8048c57:	83 ec 28             	sub    $0x28,%esp
 8048c5a:	e8 c4 03 00 00       	call   8049023 <uniqueval>
 8048c5f:	89 45 f0             	mov    %eax,-0x10(%ebp)
 8048c62:	e8 35 06 00 00       	call   804929c <getbufn>
 8048c67:	89 45 f4             	mov    %eax,-0xc(%ebp)
 8048c6a:	e8 b4 03 00 00       	call   8049023 <uniqueval>
 8048c6f:	8b 55 f0             	mov    -0x10(%ebp),%edx
 8048c72:	39 d0                	cmp    %edx,%eax
 8048c74:	74 0e                	je     8048c84 <testn+0x30>
 8048c76:	c7 04 24 50 a6 04 08 	movl   $0x804a650,(%esp)
 8048c7d:	e8 7e fc ff ff       	call   8048900 <puts@plt>
 8048c82:	eb 42                	jmp    8048cc6 <testn+0x72>
 8048c84:	8b 55 f4             	mov    -0xc(%ebp),%edx
 8048c87:	a1 04 e1 04 08       	mov    0x804e104,%eax
 8048c8c:	39 c2                	cmp    %eax,%edx
 8048c8e:	75 22                	jne    8048cb2 <testn+0x5e>
 8048c90:	b8 b4 a6 04 08       	mov    $0x804a6b4,%eax
 8048c95:	8b 55 f4             	mov    -0xc(%ebp),%edx
 8048c98:	89 54 24 04          	mov    %edx,0x4(%esp)
 8048c9c:	89 04 24             	mov    %eax,(%esp)
 8048c9f:	e8 8c fb ff ff       	call   8048830 <printf@plt>
 8048ca4:	c7 04 24 04 00 00 00 	movl   $0x4,(%esp)
 8048cab:	e8 7e 07 00 00       	call   804942e <validate>
 8048cb0:	eb 14                	jmp    8048cc6 <testn+0x72>
 8048cb2:	b8 d4 a6 04 08       	mov    $0x804a6d4,%eax
 8048cb7:	8b 55 f4             	mov    -0xc(%ebp),%edx
 8048cba:	89 54 24 04          	mov    %edx,0x4(%esp)
 8048cbe:	89 04 24             	mov    %eax,(%esp)
 8048cc1:	e8 6a fb ff ff       	call   8048830 <printf@plt>
 8048cc6:	c9                   	leave  
 8048cc7:	c3                   	ret    

08048cc8 <save_char>:
 8048cc8:	55                   	push   %ebp
 8048cc9:	89 e5                	mov    %esp,%ebp
 8048ccb:	83 ec 04             	sub    $0x4,%esp
 8048cce:	8b 45 08             	mov    0x8(%ebp),%eax
 8048cd1:	88 45 fc             	mov    %al,-0x4(%ebp)
 8048cd4:	a1 10 e1 04 08       	mov    0x804e110,%eax
 8048cd9:	3d ff 03 00 00       	cmp    $0x3ff,%eax
 8048cde:	7f 6c                	jg     8048d4c <save_char+0x84>
 8048ce0:	8b 15 10 e1 04 08    	mov    0x804e110,%edx
 8048ce6:	89 d0                	mov    %edx,%eax
 8048ce8:	01 c0                	add    %eax,%eax
 8048cea:	01 c2                	add    %eax,%edx
 8048cec:	0f b6 45 fc          	movzbl -0x4(%ebp),%eax
 8048cf0:	c0 f8 04             	sar    $0x4,%al
 8048cf3:	0f be c0             	movsbl %al,%eax
 8048cf6:	83 e0 0f             	and    $0xf,%eax
 8048cf9:	0f b6 80 a8 d0 04 08 	movzbl 0x804d0a8(%eax),%eax
 8048d00:	88 82 40 e1 04 08    	mov    %al,0x804e140(%edx)
 8048d06:	8b 15 10 e1 04 08    	mov    0x804e110,%edx
 8048d0c:	89 d0                	mov    %edx,%eax
 8048d0e:	01 c0                	add    %eax,%eax
 8048d10:	01 d0                	add    %edx,%eax
 8048d12:	8d 50 01             	lea    0x1(%eax),%edx
 8048d15:	0f be 45 fc          	movsbl -0x4(%ebp),%eax
 8048d19:	83 e0 0f             	and    $0xf,%eax
 8048d1c:	0f b6 80 a8 d0 04 08 	movzbl 0x804d0a8(%eax),%eax
 8048d23:	88 82 40 e1 04 08    	mov    %al,0x804e140(%edx)
 8048d29:	8b 15 10 e1 04 08    	mov    0x804e110,%edx
 8048d2f:	89 d0                	mov    %edx,%eax
 8048d31:	01 c0                	add    %eax,%eax
 8048d33:	01 d0                	add    %edx,%eax
 8048d35:	83 c0 02             	add    $0x2,%eax
 8048d38:	c6 80 40 e1 04 08 20 	movb   $0x20,0x804e140(%eax)
 8048d3f:	a1 10 e1 04 08       	mov    0x804e110,%eax
 8048d44:	83 c0 01             	add    $0x1,%eax
 8048d47:	a3 10 e1 04 08       	mov    %eax,0x804e110
 8048d4c:	c9                   	leave  
 8048d4d:	c3                   	ret    

08048d4e <save_term>:
 8048d4e:	55                   	push   %ebp
 8048d4f:	89 e5                	mov    %esp,%ebp
 8048d51:	8b 15 10 e1 04 08    	mov    0x804e110,%edx
 8048d57:	89 d0                	mov    %edx,%eax
 8048d59:	01 c0                	add    %eax,%eax
 8048d5b:	01 d0                	add    %edx,%eax
 8048d5d:	c6 80 40 e1 04 08 00 	movb   $0x0,0x804e140(%eax)
 8048d64:	5d                   	pop    %ebp
 8048d65:	c3                   	ret    

08048d66 <Gets>:
 8048d66:	55                   	push   %ebp
 8048d67:	89 e5                	mov    %esp,%ebp
 8048d69:	83 ec 28             	sub    $0x28,%esp
 8048d6c:	8b 45 08             	mov    0x8(%ebp),%eax
 8048d6f:	89 45 f0             	mov    %eax,-0x10(%ebp)
 8048d72:	c7 05 10 e1 04 08 00 	movl   $0x0,0x804e110
 8048d79:	00 00 00 
 8048d7c:	eb 1c                	jmp    8048d9a <Gets+0x34>
 8048d7e:	8b 45 f4             	mov    -0xc(%ebp),%eax
 8048d81:	89 c2                	mov    %eax,%edx
 8048d83:	8b 45 f0             	mov    -0x10(%ebp),%eax
 8048d86:	88 10                	mov    %dl,(%eax)
 8048d88:	83 45 f0 01          	addl   $0x1,-0x10(%ebp)
 8048d8c:	8b 45 f4             	mov    -0xc(%ebp),%eax
 8048d8f:	0f be c0             	movsbl %al,%eax
 8048d92:	89 04 24             	mov    %eax,(%esp)
 8048d95:	e8 2e ff ff ff       	call   8048cc8 <save_char>
 8048d9a:	a1 00 e1 04 08       	mov    0x804e100,%eax
 8048d9f:	89 04 24             	mov    %eax,(%esp)
 8048da2:	e8 e9 fa ff ff       	call   8048890 <_IO_getc@plt>
 8048da7:	89 45 f4             	mov    %eax,-0xc(%ebp)
 8048daa:	83 7d f4 ff          	cmpl   $0xffffffff,-0xc(%ebp)
 8048dae:	74 06                	je     8048db6 <Gets+0x50>
 8048db0:	83 7d f4 0a          	cmpl   $0xa,-0xc(%ebp)
 8048db4:	75 c8                	jne    8048d7e <Gets+0x18>
 8048db6:	8b 45 f0             	mov    -0x10(%ebp),%eax
 8048db9:	c6 00 00             	movb   $0x0,(%eax)
 8048dbc:	83 45 f0 01          	addl   $0x1,-0x10(%ebp)
 8048dc0:	e8 89 ff ff ff       	call   8048d4e <save_term>
 8048dc5:	8b 45 08             	mov    0x8(%ebp),%eax
 8048dc8:	c9                   	leave  
 8048dc9:	c3                   	ret    

08048dca <usage>:
 8048dca:	55                   	push   %ebp
 8048dcb:	89 e5                	mov    %esp,%ebp
 8048dcd:	83 ec 18             	sub    $0x18,%esp
 8048dd0:	b8 f0 a6 04 08       	mov    $0x804a6f0,%eax
 8048dd5:	8b 55 08             	mov    0x8(%ebp),%edx
 8048dd8:	89 54 24 04          	mov    %edx,0x4(%esp)
 8048ddc:	89 04 24             	mov    %eax,(%esp)
 8048ddf:	e8 4c fa ff ff       	call   8048830 <printf@plt>
 8048de4:	c7 04 24 0e a7 04 08 	movl   $0x804a70e,(%esp)
 8048deb:	e8 10 fb ff ff       	call   8048900 <puts@plt>
 8048df0:	c7 04 24 24 a7 04 08 	movl   $0x804a724,(%esp)
 8048df7:	e8 04 fb ff ff       	call   8048900 <puts@plt>
 8048dfc:	c7 04 24 40 a7 04 08 	movl   $0x804a740,(%esp)
 8048e03:	e8 f8 fa ff ff       	call   8048900 <puts@plt>
 8048e08:	c7 04 24 7c a7 04 08 	movl   $0x804a77c,(%esp)
 8048e0f:	e8 ec fa ff ff       	call   8048900 <puts@plt>
 8048e14:	c7 04 24 00 00 00 00 	movl   $0x0,(%esp)
 8048e1b:	e8 00 fb ff ff       	call   8048920 <exit@plt>

08048e20 <bushandler>:
 8048e20:	55                   	push   %ebp
 8048e21:	89 e5                	mov    %esp,%ebp
 8048e23:	83 ec 18             	sub    $0x18,%esp
 8048e26:	c7 04 24 a4 a7 04 08 	movl   $0x804a7a4,(%esp)
 8048e2d:	e8 ce fa ff ff       	call   8048900 <puts@plt>
 8048e32:	c7 04 24 c4 a7 04 08 	movl   $0x804a7c4,(%esp)
 8048e39:	e8 c2 fa ff ff       	call   8048900 <puts@plt>
 8048e3e:	c7 04 24 00 00 00 00 	movl   $0x0,(%esp)
 8048e45:	e8 d6 fa ff ff       	call   8048920 <exit@plt>

08048e4a <seghandler>:
 8048e4a:	55                   	push   %ebp
 8048e4b:	89 e5                	mov    %esp,%ebp
 8048e4d:	83 ec 18             	sub    $0x18,%esp
 8048e50:	c7 04 24 dc a7 04 08 	movl   $0x804a7dc,(%esp)
 8048e57:	e8 a4 fa ff ff       	call   8048900 <puts@plt>
 8048e5c:	c7 04 24 c4 a7 04 08 	movl   $0x804a7c4,(%esp)
 8048e63:	e8 98 fa ff ff       	call   8048900 <puts@plt>
 8048e68:	c7 04 24 00 00 00 00 	movl   $0x0,(%esp)
 8048e6f:	e8 ac fa ff ff       	call   8048920 <exit@plt>

08048e74 <illegalhandler>:
 8048e74:	55                   	push   %ebp
 8048e75:	89 e5                	mov    %esp,%ebp
 8048e77:	83 ec 18             	sub    $0x18,%esp
 8048e7a:	c7 04 24 04 a8 04 08 	movl   $0x804a804,(%esp)
 8048e81:	e8 7a fa ff ff       	call   8048900 <puts@plt>
 8048e86:	c7 04 24 c4 a7 04 08 	movl   $0x804a7c4,(%esp)
 8048e8d:	e8 6e fa ff ff       	call   8048900 <puts@plt>
 8048e92:	c7 04 24 00 00 00 00 	movl   $0x0,(%esp)
 8048e99:	e8 82 fa ff ff       	call   8048920 <exit@plt>

08048e9e <launch>:
 8048e9e:	55                   	push   %ebp
 8048e9f:	89 e5                	mov    %esp,%ebp
 8048ea1:	83 ec 78             	sub    $0x78,%esp
 8048ea4:	c7 45 f0 00 00 00 00 	movl   $0x0,-0x10(%ebp)
 8048eab:	8d 45 b0             	lea    -0x50(%ebp),%eax
 8048eae:	25 f0 3f 00 00       	and    $0x3ff0,%eax
 8048eb3:	89 45 f0             	mov    %eax,-0x10(%ebp)
 8048eb6:	8b 45 0c             	mov    0xc(%ebp),%eax
 8048eb9:	03 45 f0             	add    -0x10(%ebp),%eax
 8048ebc:	8d 50 0f             	lea    0xf(%eax),%edx
 8048ebf:	b8 10 00 00 00       	mov    $0x10,%eax
 8048ec4:	83 e8 01             	sub    $0x1,%eax
 8048ec7:	01 d0                	add    %edx,%eax
 8048ec9:	c7 45 a4 10 00 00 00 	movl   $0x10,-0x5c(%ebp)
 8048ed0:	ba 00 00 00 00       	mov    $0x0,%edx
 8048ed5:	f7 75 a4             	divl   -0x5c(%ebp)
 8048ed8:	6b c0 10             	imul   $0x10,%eax,%eax
 8048edb:	29 c4                	sub    %eax,%esp
 8048edd:	8d 44 24 0c          	lea    0xc(%esp),%eax
 8048ee1:	83 c0 0f             	add    $0xf,%eax
 8048ee4:	c1 e8 04             	shr    $0x4,%eax
 8048ee7:	c1 e0 04             	shl    $0x4,%eax
 8048eea:	89 45 f4             	mov    %eax,-0xc(%ebp)
 8048eed:	8b 45 f0             	mov    -0x10(%ebp),%eax
 8048ef0:	89 44 24 08          	mov    %eax,0x8(%esp)
 8048ef4:	c7 44 24 04 f4 00 00 	movl   $0xf4,0x4(%esp)
 8048efb:	00 
 8048efc:	8b 45 f4             	mov    -0xc(%ebp),%eax
 8048eff:	89 04 24             	mov    %eax,(%esp)
 8048f02:	e8 99 fa ff ff       	call   80489a0 <memset@plt>
 8048f07:	b8 2f a8 04 08       	mov    $0x804a82f,%eax
 8048f0c:	89 04 24             	mov    %eax,(%esp)
 8048f0f:	e8 1c f9 ff ff       	call   8048830 <printf@plt>
 8048f14:	83 7d 08 00          	cmpl   $0x0,0x8(%ebp)
 8048f18:	74 07                	je     8048f21 <launch+0x83>
 8048f1a:	e8 35 fd ff ff       	call   8048c54 <testn>
 8048f1f:	eb 05                	jmp    8048f26 <launch+0x88>
 8048f21:	e8 ba fc ff ff       	call   8048be0 <test>
 8048f26:	a1 08 e1 04 08       	mov    0x804e108,%eax
 8048f2b:	85 c0                	test   %eax,%eax
 8048f2d:	75 16                	jne    8048f45 <launch+0xa7>
 8048f2f:	c7 04 24 c4 a7 04 08 	movl   $0x804a7c4,(%esp)
 8048f36:	e8 c5 f9 ff ff       	call   8048900 <puts@plt>
 8048f3b:	c7 05 08 e1 04 08 00 	movl   $0x0,0x804e108
 8048f42:	00 00 00 
 8048f45:	c9                   	leave  
 8048f46:	c3                   	ret    

08048f47 <launcher>:
 8048f47:	55                   	push   %ebp
 8048f48:	89 e5                	mov    %esp,%ebp
 8048f4a:	83 ec 38             	sub    $0x38,%esp
 8048f4d:	8b 45 08             	mov    0x8(%ebp),%eax
 8048f50:	a3 14 e1 04 08       	mov    %eax,0x804e114
 8048f55:	8b 45 0c             	mov    0xc(%ebp),%eax
 8048f58:	a3 18 e1 04 08       	mov    %eax,0x804e118
 8048f5d:	c7 44 24 14 00 00 00 	movl   $0x0,0x14(%esp)
 8048f64:	00 
 8048f65:	c7 44 24 10 00 00 00 	movl   $0x0,0x10(%esp)
 8048f6c:	00 
 8048f6d:	c7 44 24 0c 32 01 00 	movl   $0x132,0xc(%esp)
 8048f74:	00 
 8048f75:	c7 44 24 08 07 00 00 	movl   $0x7,0x8(%esp)
 8048f7c:	00 
 8048f7d:	c7 44 24 04 00 00 10 	movl   $0x100000,0x4(%esp)
 8048f84:	00 
 8048f85:	c7 04 24 00 60 58 55 	movl   $0x55586000,(%esp)
 8048f8c:	e8 af f9 ff ff       	call   8048940 <mmap@plt>
 8048f91:	89 45 f4             	mov    %eax,-0xc(%ebp)
 8048f94:	81 7d f4 00 60 58 55 	cmpl   $0x55586000,-0xc(%ebp)
 8048f9b:	74 34                	je     8048fd1 <launcher+0x8a>
 8048f9d:	a1 e0 e0 04 08       	mov    0x804e0e0,%eax
 8048fa2:	89 c2                	mov    %eax,%edx
 8048fa4:	b8 3c a8 04 08       	mov    $0x804a83c,%eax
 8048fa9:	89 54 24 0c          	mov    %edx,0xc(%esp)
 8048fad:	c7 44 24 08 47 00 00 	movl   $0x47,0x8(%esp)
 8048fb4:	00 
 8048fb5:	c7 44 24 04 01 00 00 	movl   $0x1,0x4(%esp)
 8048fbc:	00 
 8048fbd:	89 04 24             	mov    %eax,(%esp)
 8048fc0:	e8 eb f8 ff ff       	call   80488b0 <fwrite@plt>
 8048fc5:	c7 04 24 01 00 00 00 	movl   $0x1,(%esp)
 8048fcc:	e8 4f f9 ff ff       	call   8048920 <exit@plt>
 8048fd1:	8b 45 f4             	mov    -0xc(%ebp),%eax
 8048fd4:	05 f8 ff 0f 00       	add    $0xffff8,%eax
 8048fd9:	a3 20 e1 04 08       	mov    %eax,0x804e120
 8048fde:	8b 15 20 e1 04 08    	mov    0x804e120,%edx
 8048fe4:	89 e0                	mov    %esp,%eax
 8048fe6:	89 d4                	mov    %edx,%esp
 8048fe8:	89 c2                	mov    %eax,%edx
 8048fea:	89 15 1c e1 04 08    	mov    %edx,0x804e11c
 8048ff0:	8b 15 18 e1 04 08    	mov    0x804e118,%edx
 8048ff6:	a1 14 e1 04 08       	mov    0x804e114,%eax
 8048ffb:	89 54 24 04          	mov    %edx,0x4(%esp)
 8048fff:	89 04 24             	mov    %eax,(%esp)
 8049002:	e8 97 fe ff ff       	call   8048e9e <launch>
 8049007:	a1 1c e1 04 08       	mov    0x804e11c,%eax
 804900c:	89 c4                	mov    %eax,%esp
 804900e:	c7 44 24 04 00 00 10 	movl   $0x100000,0x4(%esp)
 8049015:	00 
 8049016:	8b 45 f4             	mov    -0xc(%ebp),%eax
 8049019:	89 04 24             	mov    %eax,(%esp)
 804901c:	e8 af f9 ff ff       	call   80489d0 <munmap@plt>
 8049021:	c9                   	leave  
 8049022:	c3                   	ret    

08049023 <uniqueval>:
 8049023:	55                   	push   %ebp
 8049024:	89 e5                	mov    %esp,%ebp
 8049026:	83 ec 18             	sub    $0x18,%esp
 8049029:	e8 b2 f8 ff ff       	call   80488e0 <getpid@plt>
 804902e:	89 04 24             	mov    %eax,(%esp)
 8049031:	e8 ea f7 ff ff       	call   8048820 <srandom@plt>
 8049036:	e8 c5 f9 ff ff       	call   8048a00 <random@plt>
 804903b:	c9                   	leave  
 804903c:	c3                   	ret    

0804903d <main>:
 804903d:	55                   	push   %ebp
 804903e:	89 e5                	mov    %esp,%ebp
 8049040:	53                   	push   %ebx
 8049041:	83 e4 f0             	and    $0xfffffff0,%esp
 8049044:	83 ec 30             	sub    $0x30,%esp
 8049047:	c7 44 24 24 00 00 00 	movl   $0x0,0x24(%esp)
 804904e:	00 
 804904f:	c7 44 24 18 00 00 00 	movl   $0x0,0x18(%esp)
 8049056:	00 
 8049057:	c7 44 24 20 01 00 00 	movl   $0x1,0x20(%esp)
 804905e:	00 
 804905f:	c7 44 24 04 4a 8e 04 	movl   $0x8048e4a,0x4(%esp)
 8049066:	08 
 8049067:	c7 04 24 0b 00 00 00 	movl   $0xb,(%esp)
 804906e:	e8 ed f7 ff ff       	call   8048860 <signal@plt>
 8049073:	c7 44 24 04 20 8e 04 	movl   $0x8048e20,0x4(%esp)
 804907a:	08 
 804907b:	c7 04 24 07 00 00 00 	movl   $0x7,(%esp)
 8049082:	e8 d9 f7 ff ff       	call   8048860 <signal@plt>
 8049087:	c7 44 24 04 74 8e 04 	movl   $0x8048e74,0x4(%esp)
 804908e:	08 
 804908f:	c7 04 24 04 00 00 00 	movl   $0x4,(%esp)
 8049096:	e8 c5 f7 ff ff       	call   8048860 <signal@plt>
 804909b:	a1 e4 e0 04 08       	mov    0x804e0e4,%eax
 80490a0:	a3 00 e1 04 08       	mov    %eax,0x804e100
 80490a5:	e9 8e 00 00 00       	jmp    8049138 <main+0xfb>
 80490aa:	0f be 44 24 2f       	movsbl 0x2f(%esp),%eax
 80490af:	83 e8 67             	sub    $0x67,%eax
 80490b2:	83 f8 0e             	cmp    $0xe,%eax
 80490b5:	77 74                	ja     804912b <main+0xee>
 80490b7:	8b 04 85 fc a8 04 08 	mov    0x804a8fc(,%eax,4),%eax
 80490be:	ff e0                	jmp    *%eax
 80490c0:	8b 45 0c             	mov    0xc(%ebp),%eax
 80490c3:	8b 00                	mov    (%eax),%eax
 80490c5:	89 04 24             	mov    %eax,(%esp)
 80490c8:	e8 fd fc ff ff       	call   8048dca <usage>
 80490cd:	eb 69                	jmp    8049138 <main+0xfb>
 80490cf:	c7 44 24 18 01 00 00 	movl   $0x1,0x18(%esp)
 80490d6:	00 
 80490d7:	c7 44 24 20 05 00 00 	movl   $0x5,0x20(%esp)
 80490de:	00 
 80490df:	eb 57                	jmp    8049138 <main+0xfb>
 80490e1:	a1 e8 e0 04 08       	mov    0x804e0e8,%eax
 80490e6:	89 04 24             	mov    %eax,(%esp)
 80490e9:	e8 52 f7 ff ff       	call   8048840 <strdup@plt>
 80490ee:	a3 f4 e0 04 08       	mov    %eax,0x804e0f4
 80490f3:	a1 f4 e0 04 08       	mov    0x804e0f4,%eax
 80490f8:	89 04 24             	mov    %eax,(%esp)
 80490fb:	e8 a3 13 00 00       	call   804a4a3 <gencookie>
 8049100:	a3 04 e1 04 08       	mov    %eax,0x804e104
 8049105:	eb 31                	jmp    8049138 <main+0xfb>
 8049107:	c7 04 24 84 a8 04 08 	movl   $0x804a884,(%esp)
 804910e:	e8 ed f7 ff ff       	call   8048900 <puts@plt>
 8049113:	c7 05 f8 e0 04 08 00 	movl   $0x0,0x804e0f8
 804911a:	00 00 00 
 804911d:	eb 19                	jmp    8049138 <main+0xfb>
 804911f:	c7 05 fc e0 04 08 01 	movl   $0x1,0x804e0fc
 8049126:	00 00 00 
 8049129:	eb 0d                	jmp    8049138 <main+0xfb>
 804912b:	8b 45 0c             	mov    0xc(%ebp),%eax
 804912e:	8b 00                	mov    (%eax),%eax
 8049130:	89 04 24             	mov    %eax,(%esp)
 8049133:	e8 92 fc ff ff       	call   8048dca <usage>
 8049138:	c7 44 24 08 ac a8 04 	movl   $0x804a8ac,0x8(%esp)
 804913f:	08 
 8049140:	8b 45 0c             	mov    0xc(%ebp),%eax
 8049143:	89 44 24 04          	mov    %eax,0x4(%esp)
 8049147:	8b 45 08             	mov    0x8(%ebp),%eax
 804914a:	89 04 24             	mov    %eax,(%esp)
 804914d:	e8 1e f8 ff ff       	call   8048970 <getopt@plt>
 8049152:	88 44 24 2f          	mov    %al,0x2f(%esp)
 8049156:	80 7c 24 2f ff       	cmpb   $0xff,0x2f(%esp)
 804915b:	0f 85 49 ff ff ff    	jne    80490aa <main+0x6d>
 8049161:	a1 f4 e0 04 08       	mov    0x804e0f4,%eax
 8049166:	85 c0                	test   %eax,%eax
 8049168:	75 23                	jne    804918d <main+0x150>
 804916a:	8b 45 0c             	mov    0xc(%ebp),%eax
 804916d:	8b 10                	mov    (%eax),%edx
 804916f:	b8 b4 a8 04 08       	mov    $0x804a8b4,%eax
 8049174:	89 54 24 04          	mov    %edx,0x4(%esp)
 8049178:	89 04 24             	mov    %eax,(%esp)
 804917b:	e8 b0 f6 ff ff       	call   8048830 <printf@plt>
 8049180:	8b 45 0c             	mov    0xc(%ebp),%eax
 8049183:	8b 00                	mov    (%eax),%eax
 8049185:	89 04 24             	mov    %eax,(%esp)
 8049188:	e8 3d fc ff ff       	call   8048dca <usage>
 804918d:	e8 2a 01 00 00       	call   80492bc <initialize_bomb>
 8049192:	8b 15 f4 e0 04 08    	mov    0x804e0f4,%edx
 8049198:	b8 e0 a8 04 08       	mov    $0x804a8e0,%eax
 804919d:	89 54 24 04          	mov    %edx,0x4(%esp)
 80491a1:	89 04 24             	mov    %eax,(%esp)
 80491a4:	e8 87 f6 ff ff       	call   8048830 <printf@plt>
 80491a9:	8b 15 04 e1 04 08    	mov    0x804e104,%edx
 80491af:	b8 ec a8 04 08       	mov    $0x804a8ec,%eax
 80491b4:	89 54 24 04          	mov    %edx,0x4(%esp)
 80491b8:	89 04 24             	mov    %eax,(%esp)
 80491bb:	e8 70 f6 ff ff       	call   8048830 <printf@plt>
 80491c0:	a1 04 e1 04 08       	mov    0x804e104,%eax
 80491c5:	89 04 24             	mov    %eax,(%esp)
 80491c8:	e8 53 f6 ff ff       	call   8048820 <srandom@plt>
 80491cd:	e8 2e f8 ff ff       	call   8048a00 <random@plt>
 80491d2:	25 f0 0f 00 00       	and    $0xff0,%eax
 80491d7:	05 00 01 00 00       	add    $0x100,%eax
 80491dc:	89 44 24 24          	mov    %eax,0x24(%esp)
 80491e0:	8b 44 24 20          	mov    0x20(%esp),%eax
 80491e4:	c7 44 24 04 04 00 00 	movl   $0x4,0x4(%esp)
 80491eb:	00 
 80491ec:	89 04 24             	mov    %eax,(%esp)
 80491ef:	e8 4c f8 ff ff       	call   8048a40 <calloc@plt>
 80491f4:	89 44 24 28          	mov    %eax,0x28(%esp)
 80491f8:	8b 44 24 28          	mov    0x28(%esp),%eax
 80491fc:	c7 00 00 00 00 00    	movl   $0x0,(%eax)
 8049202:	c7 44 24 1c 01 00 00 	movl   $0x1,0x1c(%esp)
 8049209:	00 
 804920a:	eb 28                	jmp    8049234 <main+0x1f7>
 804920c:	8b 44 24 1c          	mov    0x1c(%esp),%eax
 8049210:	c1 e0 02             	shl    $0x2,%eax
 8049213:	89 c3                	mov    %eax,%ebx
 8049215:	03 5c 24 28          	add    0x28(%esp),%ebx
 8049219:	e8 e2 f7 ff ff       	call   8048a00 <random@plt>
 804921e:	89 c2                	mov    %eax,%edx
 8049220:	81 e2 f0 00 00 00    	and    $0xf0,%edx
 8049226:	b8 80 00 00 00       	mov    $0x80,%eax
 804922b:	29 d0                	sub    %edx,%eax
 804922d:	89 03                	mov    %eax,(%ebx)
 804922f:	83 44 24 1c 01       	addl   $0x1,0x1c(%esp)
 8049234:	8b 44 24 1c          	mov    0x1c(%esp),%eax
 8049238:	3b 44 24 20          	cmp    0x20(%esp),%eax
 804923c:	7c ce                	jl     804920c <main+0x1cf>
 804923e:	c7 44 24 1c 00 00 00 	movl   $0x0,0x1c(%esp)
 8049245:	00 
 8049246:	eb 26                	jmp    804926e <main+0x231>
 8049248:	8b 44 24 1c          	mov    0x1c(%esp),%eax
 804924c:	c1 e0 02             	shl    $0x2,%eax
 804924f:	03 44 24 28          	add    0x28(%esp),%eax
 8049253:	8b 00                	mov    (%eax),%eax
 8049255:	03 44 24 24          	add    0x24(%esp),%eax
 8049259:	89 44 24 04          	mov    %eax,0x4(%esp)
 804925d:	8b 44 24 18          	mov    0x18(%esp),%eax
 8049261:	89 04 24             	mov    %eax,(%esp)
 8049264:	e8 de fc ff ff       	call   8048f47 <launcher>
 8049269:	83 44 24 1c 01       	addl   $0x1,0x1c(%esp)
 804926e:	8b 44 24 1c          	mov    0x1c(%esp),%eax
 8049272:	3b 44 24 20          	cmp    0x20(%esp),%eax
 8049276:	7c d0                	jl     8049248 <main+0x20b>
 8049278:	b8 00 00 00 00       	mov    $0x0,%eax
 804927d:	8b 5d fc             	mov    -0x4(%ebp),%ebx
 8049280:	c9                   	leave  
 8049281:	c3                   	ret    
 8049282:	90                   	nop
 8049283:	90                   	nop

08049284 <getbuf>:
 8049284:	55                   	push   %ebp
 8049285:	89 e5                	mov    %esp,%ebp
 8049287:	83 ec 38             	sub    $0x38,%esp
 804928a:	8d 45 d8             	lea    -0x28(%ebp),%eax
 804928d:	89 04 24             	mov    %eax,(%esp)
 8049290:	e8 d1 fa ff ff       	call   8048d66 <Gets>
 8049295:	b8 01 00 00 00       	mov    $0x1,%eax
 804929a:	c9                   	leave  
 804929b:	c3                   	ret    

0804929c <getbufn>:
 804929c:	55                   	push   %ebp
 804929d:	89 e5                	mov    %esp,%ebp
 804929f:	81 ec 18 02 00 00    	sub    $0x218,%esp
 80492a5:	8d 85 f8 fd ff ff    	lea    -0x208(%ebp),%eax
 80492ab:	89 04 24             	mov    %eax,(%esp)
 80492ae:	e8 b3 fa ff ff       	call   8048d66 <Gets>
 80492b3:	b8 01 00 00 00       	mov    $0x1,%eax
 80492b8:	c9                   	leave  
 80492b9:	c3                   	ret    
 80492ba:	90                   	nop
 80492bb:	90                   	nop

080492bc <initialize_bomb>:
 80492bc:	55                   	push   %ebp
 80492bd:	89 e5                	mov    %esp,%ebp
 80492bf:	81 ec 28 24 00 00    	sub    $0x2428,%esp
 80492c5:	65 a1 14 00 00 00    	mov    %gs:0x14,%eax
 80492cb:	89 45 f4             	mov    %eax,-0xc(%ebp)
 80492ce:	31 c0                	xor    %eax,%eax
 80492d0:	c7 85 f0 db ff ff 00 	movl   $0x0,-0x2410(%ebp)
 80492d7:	00 00 00 
 80492da:	a1 fc e0 04 08       	mov    0x804e0fc,%eax
 80492df:	85 c0                	test   %eax,%eax
 80492e1:	74 0c                	je     80492ef <initialize_bomb+0x33>
 80492e3:	c7 04 24 ff ff ff ff 	movl   $0xffffffff,(%esp)
 80492ea:	e8 43 0e 00 00       	call   804a132 <init_timeout>
 80492ef:	a1 f8 e0 04 08       	mov    0x804e0f8,%eax
 80492f4:	85 c0                	test   %eax,%eax
 80492f6:	0f 84 1f 01 00 00    	je     804941b <initialize_bomb+0x15f>
 80492fc:	c7 44 24 04 00 04 00 	movl   $0x400,0x4(%esp)
 8049303:	00 
 8049304:	8d 85 f4 fb ff ff    	lea    -0x40c(%ebp),%eax
 804930a:	89 04 24             	mov    %eax,(%esp)
 804930d:	e8 de f5 ff ff       	call   80488f0 <gethostname@plt>
 8049312:	85 c0                	test   %eax,%eax
 8049314:	74 18                	je     804932e <initialize_bomb+0x72>
 8049316:	c7 04 24 a0 a9 04 08 	movl   $0x804a9a0,(%esp)
 804931d:	e8 de f5 ff ff       	call   8048900 <puts@plt>
 8049322:	c7 04 24 08 00 00 00 	movl   $0x8,(%esp)
 8049329:	e8 f2 f5 ff ff       	call   8048920 <exit@plt>
 804932e:	c7 85 ec db ff ff 00 	movl   $0x0,-0x2414(%ebp)
 8049335:	00 00 00 
 8049338:	eb 36                	jmp    8049370 <initialize_bomb+0xb4>
 804933a:	8b 85 ec db ff ff    	mov    -0x2414(%ebp),%eax
 8049340:	8b 04 85 c0 d0 04 08 	mov    0x804d0c0(,%eax,4),%eax
 8049347:	8d 95 f4 fb ff ff    	lea    -0x40c(%ebp),%edx
 804934d:	89 54 24 04          	mov    %edx,0x4(%esp)
 8049351:	89 04 24             	mov    %eax,(%esp)
 8049354:	e8 27 f6 ff ff       	call   8048980 <strcasecmp@plt>
 8049359:	85 c0                	test   %eax,%eax
 804935b:	75 0c                	jne    8049369 <initialize_bomb+0xad>
 804935d:	c7 85 f0 db ff ff 01 	movl   $0x1,-0x2410(%ebp)
 8049364:	00 00 00 
 8049367:	eb 18                	jmp    8049381 <initialize_bomb+0xc5>
 8049369:	83 85 ec db ff ff 01 	addl   $0x1,-0x2414(%ebp)
 8049370:	8b 85 ec db ff ff    	mov    -0x2414(%ebp),%eax
 8049376:	8b 04 85 c0 d0 04 08 	mov    0x804d0c0(,%eax,4),%eax
 804937d:	85 c0                	test   %eax,%eax
 804937f:	75 b9                	jne    804933a <initialize_bomb+0x7e>
 8049381:	83 bd f0 db ff ff 00 	cmpl   $0x0,-0x2410(%ebp)
 8049388:	75 5c                	jne    80493e6 <initialize_bomb+0x12a>
 804938a:	b8 d8 a9 04 08       	mov    $0x804a9d8,%eax
 804938f:	8d 95 f4 fb ff ff    	lea    -0x40c(%ebp),%edx
 8049395:	89 54 24 04          	mov    %edx,0x4(%esp)
 8049399:	89 04 24             	mov    %eax,(%esp)
 804939c:	e8 8f f4 ff ff       	call   8048830 <printf@plt>
 80493a1:	c7 85 ec db ff ff 00 	movl   $0x0,-0x2414(%ebp)
 80493a8:	00 00 00 
 80493ab:	eb 1c                	jmp    80493c9 <initialize_bomb+0x10d>
 80493ad:	8b 85 ec db ff ff    	mov    -0x2414(%ebp),%eax
 80493b3:	8b 04 85 c0 d0 04 08 	mov    0x804d0c0(,%eax,4),%eax
 80493ba:	89 04 24             	mov    %eax,(%esp)
 80493bd:	e8 3e f5 ff ff       	call   8048900 <puts@plt>
 80493c2:	83 85 ec db ff ff 01 	addl   $0x1,-0x2414(%ebp)
 80493c9:	8b 85 ec db ff ff    	mov    -0x2414(%ebp),%eax
 80493cf:	8b 04 85 c0 d0 04 08 	mov    0x804d0c0(,%eax,4),%eax
 80493d6:	85 c0                	test   %eax,%eax
 80493d8:	75 d3                	jne    80493ad <initialize_bomb+0xf1>
 80493da:	c7 04 24 08 00 00 00 	movl   $0x8,(%esp)
 80493e1:	e8 3a f5 ff ff       	call   8048920 <exit@plt>
 80493e6:	8d 85 f4 db ff ff    	lea    -0x240c(%ebp),%eax
 80493ec:	89 04 24             	mov    %eax,(%esp)
 80493ef:	e8 7b 0d 00 00       	call   804a16f <init_driver>
 80493f4:	85 c0                	test   %eax,%eax
 80493f6:	79 23                	jns    804941b <initialize_bomb+0x15f>
 80493f8:	b8 13 aa 04 08       	mov    $0x804aa13,%eax
 80493fd:	8d 95 f4 db ff ff    	lea    -0x240c(%ebp),%edx
 8049403:	89 54 24 04          	mov    %edx,0x4(%esp)
 8049407:	89 04 24             	mov    %eax,(%esp)
 804940a:	e8 21 f4 ff ff       	call   8048830 <printf@plt>
 804940f:	c7 04 24 08 00 00 00 	movl   $0x8,(%esp)
 8049416:	e8 05 f5 ff ff       	call   8048920 <exit@plt>
 804941b:	8b 45 f4             	mov    -0xc(%ebp),%eax
 804941e:	65 33 05 14 00 00 00 	xor    %gs:0x14,%eax
 8049425:	74 05                	je     804942c <initialize_bomb+0x170>
 8049427:	e8 54 f4 ff ff       	call   8048880 <__stack_chk_fail@plt>
 804942c:	c9                   	leave  
 804942d:	c3                   	ret    

0804942e <validate>:
 804942e:	55                   	push   %ebp
 804942f:	89 e5                	mov    %esp,%ebp
 8049431:	57                   	push   %edi
 8049432:	81 ec 44 40 00 00    	sub    $0x4044,%esp
 8049438:	65 a1 14 00 00 00    	mov    %gs:0x14,%eax
 804943e:	89 45 f4             	mov    %eax,-0xc(%ebp)
 8049441:	31 c0                	xor    %eax,%eax
 8049443:	a1 f4 e0 04 08       	mov    0x804e0f4,%eax
 8049448:	85 c0                	test   %eax,%eax
 804944a:	75 11                	jne    804945d <validate+0x2f>
 804944c:	c7 04 24 28 aa 04 08 	movl   $0x804aa28,(%esp)
 8049453:	e8 a8 f4 ff ff       	call   8048900 <puts@plt>
 8049458:	e9 51 01 00 00       	jmp    80495ae <validate+0x180>
 804945d:	83 7d 08 00          	cmpl   $0x0,0x8(%ebp)
 8049461:	78 06                	js     8049469 <validate+0x3b>
 8049463:	83 7d 08 04          	cmpl   $0x4,0x8(%ebp)
 8049467:	7e 11                	jle    804947a <validate+0x4c>
 8049469:	c7 04 24 54 aa 04 08 	movl   $0x804aa54,(%esp)
 8049470:	e8 8b f4 ff ff       	call   8048900 <puts@plt>
 8049475:	e9 34 01 00 00       	jmp    80495ae <validate+0x180>
 804947a:	c7 05 08 e1 04 08 01 	movl   $0x1,0x804e108
 8049481:	00 00 00 
 8049484:	8b 45 08             	mov    0x8(%ebp),%eax
 8049487:	8b 04 85 c0 e0 04 08 	mov    0x804e0c0(,%eax,4),%eax
 804948e:	8d 50 ff             	lea    -0x1(%eax),%edx
 8049491:	8b 45 08             	mov    0x8(%ebp),%eax
 8049494:	89 14 85 c0 e0 04 08 	mov    %edx,0x804e0c0(,%eax,4)
 804949b:	8b 45 08             	mov    0x8(%ebp),%eax
 804949e:	8b 04 85 c0 e0 04 08 	mov    0x804e0c0(,%eax,4),%eax
 80494a5:	85 c0                	test   %eax,%eax
 80494a7:	7e 11                	jle    80494ba <validate+0x8c>
 80494a9:	c7 04 24 7a aa 04 08 	movl   $0x804aa7a,(%esp)
 80494b0:	e8 4b f4 ff ff       	call   8048900 <puts@plt>
 80494b5:	e9 f4 00 00 00       	jmp    80495ae <validate+0x180>
 80494ba:	c7 04 24 85 aa 04 08 	movl   $0x804aa85,(%esp)
 80494c1:	e8 3a f4 ff ff       	call   8048900 <puts@plt>
 80494c6:	a1 f8 e0 04 08       	mov    0x804e0f8,%eax
 80494cb:	85 c0                	test   %eax,%eax
 80494cd:	0f 84 cf 00 00 00    	je     80495a2 <validate+0x174>
 80494d3:	b8 40 e1 04 08       	mov    $0x804e140,%eax
 80494d8:	c7 85 e4 bf ff ff ff 	movl   $0xffffffff,-0x401c(%ebp)
 80494df:	ff ff ff 
 80494e2:	89 c2                	mov    %eax,%edx
 80494e4:	b8 00 00 00 00       	mov    $0x0,%eax
 80494e9:	8b 8d e4 bf ff ff    	mov    -0x401c(%ebp),%ecx
 80494ef:	89 d7                	mov    %edx,%edi
 80494f1:	f2 ae                	repnz scas %es:(%edi),%al
 80494f3:	89 c8                	mov    %ecx,%eax
 80494f5:	f7 d0                	not    %eax
 80494f7:	83 e8 01             	sub    $0x1,%eax
 80494fa:	83 c0 20             	add    $0x20,%eax
 80494fd:	3d 00 20 00 00       	cmp    $0x2000,%eax
 8049502:	76 11                	jbe    8049515 <validate+0xe7>
 8049504:	c7 04 24 8c aa 04 08 	movl   $0x804aa8c,(%esp)
 804950b:	e8 f0 f3 ff ff       	call   8048900 <puts@plt>
 8049510:	e9 99 00 00 00       	jmp    80495ae <validate+0x180>
 8049515:	8b 15 04 e1 04 08    	mov    0x804e104,%edx
 804951b:	b8 c3 aa 04 08       	mov    $0x804aac3,%eax
 8049520:	c7 44 24 10 40 e1 04 	movl   $0x804e140,0x10(%esp)
 8049527:	08 
 8049528:	89 54 24 0c          	mov    %edx,0xc(%esp)
 804952c:	8b 55 08             	mov    0x8(%ebp),%edx
 804952f:	89 54 24 08          	mov    %edx,0x8(%esp)
 8049533:	89 44 24 04          	mov    %eax,0x4(%esp)
 8049537:	8d 85 f4 bf ff ff    	lea    -0x400c(%ebp),%eax
 804953d:	89 04 24             	mov    %eax,(%esp)
 8049540:	e8 9b f4 ff ff       	call   80489e0 <sprintf@plt>
 8049545:	a1 f4 e0 04 08       	mov    0x804e0f4,%eax
 804954a:	8d 95 f4 df ff ff    	lea    -0x200c(%ebp),%edx
 8049550:	89 54 24 0c          	mov    %edx,0xc(%esp)
 8049554:	c7 44 24 08 00 00 00 	movl   $0x0,0x8(%esp)
 804955b:	00 
 804955c:	8d 95 f4 bf ff ff    	lea    -0x400c(%ebp),%edx
 8049562:	89 54 24 04          	mov    %edx,0x4(%esp)
 8049566:	89 04 24             	mov    %eax,(%esp)
 8049569:	e8 ff 0d 00 00       	call   804a36d <driver_post>
 804956e:	89 85 f0 bf ff ff    	mov    %eax,-0x4010(%ebp)
 8049574:	83 bd f0 bf ff ff 00 	cmpl   $0x0,-0x4010(%ebp)
 804957b:	75 0e                	jne    804958b <validate+0x15d>
 804957d:	c7 04 24 cc aa 04 08 	movl   $0x804aacc,(%esp)
 8049584:	e8 77 f3 ff ff       	call   8048900 <puts@plt>
 8049589:	eb 17                	jmp    80495a2 <validate+0x174>
 804958b:	b8 fc aa 04 08       	mov    $0x804aafc,%eax
 8049590:	8d 95 f4 df ff ff    	lea    -0x200c(%ebp),%edx
 8049596:	89 54 24 04          	mov    %edx,0x4(%esp)
 804959a:	89 04 24             	mov    %eax,(%esp)
 804959d:	e8 8e f2 ff ff       	call   8048830 <printf@plt>
 80495a2:	c7 04 24 3a ab 04 08 	movl   $0x804ab3a,(%esp)
 80495a9:	e8 52 f3 ff ff       	call   8048900 <puts@plt>
 80495ae:	8b 45 f4             	mov    -0xc(%ebp),%eax
 80495b1:	65 33 05 14 00 00 00 	xor    %gs:0x14,%eax
 80495b8:	74 05                	je     80495bf <validate+0x191>
 80495ba:	e8 c1 f2 ff ff       	call   8048880 <__stack_chk_fail@plt>
 80495bf:	81 c4 44 40 00 00    	add    $0x4044,%esp
 80495c5:	5f                   	pop    %edi
 80495c6:	5d                   	pop    %ebp
 80495c7:	c3                   	ret    

080495c8 <sigalrm_handler>:
 80495c8:	55                   	push   %ebp
 80495c9:	89 e5                	mov    %esp,%ebp
 80495cb:	83 ec 18             	sub    $0x18,%esp
 80495ce:	b8 44 ab 04 08       	mov    $0x804ab44,%eax
 80495d3:	c7 44 24 04 02 00 00 	movl   $0x2,0x4(%esp)
 80495da:	00 
 80495db:	89 04 24             	mov    %eax,(%esp)
 80495de:	e8 4d f2 ff ff       	call   8048830 <printf@plt>
 80495e3:	c7 04 24 01 00 00 00 	movl   $0x1,(%esp)
 80495ea:	e8 31 f3 ff ff       	call   8048920 <exit@plt>

080495ef <rio_readinitb>:
 80495ef:	55                   	push   %ebp
 80495f0:	89 e5                	mov    %esp,%ebp
 80495f2:	8b 45 08             	mov    0x8(%ebp),%eax
 80495f5:	8b 55 0c             	mov    0xc(%ebp),%edx
 80495f8:	89 10                	mov    %edx,(%eax)
 80495fa:	8b 45 08             	mov    0x8(%ebp),%eax
 80495fd:	c7 40 04 00 00 00 00 	movl   $0x0,0x4(%eax)
 8049604:	8b 45 08             	mov    0x8(%ebp),%eax
 8049607:	8d 50 0c             	lea    0xc(%eax),%edx
 804960a:	8b 45 08             	mov    0x8(%ebp),%eax
 804960d:	89 50 08             	mov    %edx,0x8(%eax)
 8049610:	5d                   	pop    %ebp
 8049611:	c3                   	ret    

08049612 <rio_read>:
 8049612:	55                   	push   %ebp
 8049613:	89 e5                	mov    %esp,%ebp
 8049615:	83 ec 28             	sub    $0x28,%esp
 8049618:	eb 62                	jmp    804967c <rio_read+0x6a>
 804961a:	8b 45 08             	mov    0x8(%ebp),%eax
 804961d:	8d 50 0c             	lea    0xc(%eax),%edx
 8049620:	8b 45 08             	mov    0x8(%ebp),%eax
 8049623:	8b 00                	mov    (%eax),%eax
 8049625:	c7 44 24 08 00 20 00 	movl   $0x2000,0x8(%esp)
 804962c:	00 
 804962d:	89 54 24 04          	mov    %edx,0x4(%esp)
 8049631:	89 04 24             	mov    %eax,(%esp)
 8049634:	e8 d7 f1 ff ff       	call   8048810 <read@plt>
 8049639:	8b 55 08             	mov    0x8(%ebp),%edx
 804963c:	89 42 04             	mov    %eax,0x4(%edx)
 804963f:	8b 45 08             	mov    0x8(%ebp),%eax
 8049642:	8b 40 04             	mov    0x4(%eax),%eax
 8049645:	85 c0                	test   %eax,%eax
 8049647:	79 16                	jns    804965f <rio_read+0x4d>
 8049649:	e8 62 f3 ff ff       	call   80489b0 <__errno_location@plt>
 804964e:	8b 00                	mov    (%eax),%eax
 8049650:	83 f8 04             	cmp    $0x4,%eax
 8049653:	74 27                	je     804967c <rio_read+0x6a>
 8049655:	b8 ff ff ff ff       	mov    $0xffffffff,%eax
 804965a:	e9 84 00 00 00       	jmp    80496e3 <rio_read+0xd1>
 804965f:	8b 45 08             	mov    0x8(%ebp),%eax
 8049662:	8b 40 04             	mov    0x4(%eax),%eax
 8049665:	85 c0                	test   %eax,%eax
 8049667:	75 07                	jne    8049670 <rio_read+0x5e>
 8049669:	b8 00 00 00 00       	mov    $0x0,%eax
 804966e:	eb 73                	jmp    80496e3 <rio_read+0xd1>
 8049670:	8b 45 08             	mov    0x8(%ebp),%eax
 8049673:	8d 50 0c             	lea    0xc(%eax),%edx
 8049676:	8b 45 08             	mov    0x8(%ebp),%eax
 8049679:	89 50 08             	mov    %edx,0x8(%eax)
 804967c:	8b 45 08             	mov    0x8(%ebp),%eax
 804967f:	8b 40 04             	mov    0x4(%eax),%eax
 8049682:	85 c0                	test   %eax,%eax
 8049684:	7e 94                	jle    804961a <rio_read+0x8>
 8049686:	8b 45 10             	mov    0x10(%ebp),%eax
 8049689:	89 45 f4             	mov    %eax,-0xc(%ebp)
 804968c:	8b 45 08             	mov    0x8(%ebp),%eax
 804968f:	8b 40 04             	mov    0x4(%eax),%eax
 8049692:	3b 45 10             	cmp    0x10(%ebp),%eax
 8049695:	73 09                	jae    80496a0 <rio_read+0x8e>
 8049697:	8b 45 08             	mov    0x8(%ebp),%eax
 804969a:	8b 40 04             	mov    0x4(%eax),%eax
 804969d:	89 45 f4             	mov    %eax,-0xc(%ebp)
 80496a0:	8b 4d f4             	mov    -0xc(%ebp),%ecx
 80496a3:	8b 45 08             	mov    0x8(%ebp),%eax
 80496a6:	8b 40 08             	mov    0x8(%eax),%eax
 80496a9:	89 c2                	mov    %eax,%edx
 80496ab:	8b 45 0c             	mov    0xc(%ebp),%eax
 80496ae:	89 4c 24 08          	mov    %ecx,0x8(%esp)
 80496b2:	89 54 24 04          	mov    %edx,0x4(%esp)
 80496b6:	89 04 24             	mov    %eax,(%esp)
 80496b9:	e8 92 f1 ff ff       	call   8048850 <memcpy@plt>
 80496be:	8b 45 08             	mov    0x8(%ebp),%eax
 80496c1:	8b 50 08             	mov    0x8(%eax),%edx
 80496c4:	8b 45 f4             	mov    -0xc(%ebp),%eax
 80496c7:	01 c2                	add    %eax,%edx
 80496c9:	8b 45 08             	mov    0x8(%ebp),%eax
 80496cc:	89 50 08             	mov    %edx,0x8(%eax)
 80496cf:	8b 45 08             	mov    0x8(%ebp),%eax
 80496d2:	8b 40 04             	mov    0x4(%eax),%eax
 80496d5:	89 c2                	mov    %eax,%edx
 80496d7:	2b 55 f4             	sub    -0xc(%ebp),%edx
 80496da:	8b 45 08             	mov    0x8(%ebp),%eax
 80496dd:	89 50 04             	mov    %edx,0x4(%eax)
 80496e0:	8b 45 f4             	mov    -0xc(%ebp),%eax
 80496e3:	c9                   	leave  
 80496e4:	c3                   	ret    

080496e5 <rio_readlineb>:
 80496e5:	55                   	push   %ebp
 80496e6:	89 e5                	mov    %esp,%ebp
 80496e8:	83 ec 28             	sub    $0x28,%esp
 80496eb:	8b 45 0c             	mov    0xc(%ebp),%eax
 80496ee:	89 45 ec             	mov    %eax,-0x14(%ebp)
 80496f1:	c7 45 e8 01 00 00 00 	movl   $0x1,-0x18(%ebp)
 80496f8:	eb 58                	jmp    8049752 <rio_readlineb+0x6d>
 80496fa:	c7 44 24 08 01 00 00 	movl   $0x1,0x8(%esp)
 8049701:	00 
 8049702:	8d 45 f7             	lea    -0x9(%ebp),%eax
 8049705:	89 44 24 04          	mov    %eax,0x4(%esp)
 8049709:	8b 45 08             	mov    0x8(%ebp),%eax
 804970c:	89 04 24             	mov    %eax,(%esp)
 804970f:	e8 fe fe ff ff       	call   8049612 <rio_read>
 8049714:	89 45 f0             	mov    %eax,-0x10(%ebp)
 8049717:	83 7d f0 01          	cmpl   $0x1,-0x10(%ebp)
 804971b:	75 17                	jne    8049734 <rio_readlineb+0x4f>
 804971d:	0f b6 55 f7          	movzbl -0x9(%ebp),%edx
 8049721:	8b 45 ec             	mov    -0x14(%ebp),%eax
 8049724:	88 10                	mov    %dl,(%eax)
 8049726:	83 45 ec 01          	addl   $0x1,-0x14(%ebp)
 804972a:	0f b6 45 f7          	movzbl -0x9(%ebp),%eax
 804972e:	3c 0a                	cmp    $0xa,%al
 8049730:	75 1c                	jne    804974e <rio_readlineb+0x69>
 8049732:	eb 29                	jmp    804975d <rio_readlineb+0x78>
 8049734:	83 7d f0 00          	cmpl   $0x0,-0x10(%ebp)
 8049738:	75 0d                	jne    8049747 <rio_readlineb+0x62>
 804973a:	83 7d e8 01          	cmpl   $0x1,-0x18(%ebp)
 804973e:	75 1c                	jne    804975c <rio_readlineb+0x77>
 8049740:	b8 00 00 00 00       	mov    $0x0,%eax
 8049745:	eb 1f                	jmp    8049766 <rio_readlineb+0x81>
 8049747:	b8 ff ff ff ff       	mov    $0xffffffff,%eax
 804974c:	eb 18                	jmp    8049766 <rio_readlineb+0x81>
 804974e:	83 45 e8 01          	addl   $0x1,-0x18(%ebp)
 8049752:	8b 45 e8             	mov    -0x18(%ebp),%eax
 8049755:	3b 45 10             	cmp    0x10(%ebp),%eax
 8049758:	72 a0                	jb     80496fa <rio_readlineb+0x15>
 804975a:	eb 01                	jmp    804975d <rio_readlineb+0x78>
 804975c:	90                   	nop
 804975d:	8b 45 ec             	mov    -0x14(%ebp),%eax
 8049760:	c6 00 00             	movb   $0x0,(%eax)
 8049763:	8b 45 e8             	mov    -0x18(%ebp),%eax
 8049766:	c9                   	leave  
 8049767:	c3                   	ret    

08049768 <rio_writen>:
 8049768:	55                   	push   %ebp
 8049769:	89 e5                	mov    %esp,%ebp
 804976b:	83 ec 28             	sub    $0x28,%esp
 804976e:	8b 45 10             	mov    0x10(%ebp),%eax
 8049771:	89 45 ec             	mov    %eax,-0x14(%ebp)
 8049774:	8b 45 0c             	mov    0xc(%ebp),%eax
 8049777:	89 45 f4             	mov    %eax,-0xc(%ebp)
 804977a:	eb 4a                	jmp    80497c6 <rio_writen+0x5e>
 804977c:	8b 45 ec             	mov    -0x14(%ebp),%eax
 804977f:	89 44 24 08          	mov    %eax,0x8(%esp)
 8049783:	8b 45 f4             	mov    -0xc(%ebp),%eax
 8049786:	89 44 24 04          	mov    %eax,0x4(%esp)
 804978a:	8b 45 08             	mov    0x8(%ebp),%eax
 804978d:	89 04 24             	mov    %eax,(%esp)
 8049790:	e8 cb f1 ff ff       	call   8048960 <write@plt>
 8049795:	89 45 f0             	mov    %eax,-0x10(%ebp)
 8049798:	83 7d f0 00          	cmpl   $0x0,-0x10(%ebp)
 804979c:	7f 1c                	jg     80497ba <rio_writen+0x52>
 804979e:	e8 0d f2 ff ff       	call   80489b0 <__errno_location@plt>
 80497a3:	8b 00                	mov    (%eax),%eax
 80497a5:	83 f8 04             	cmp    $0x4,%eax
 80497a8:	75 09                	jne    80497b3 <rio_writen+0x4b>
 80497aa:	c7 45 f0 00 00 00 00 	movl   $0x0,-0x10(%ebp)
 80497b1:	eb 07                	jmp    80497ba <rio_writen+0x52>
 80497b3:	b8 ff ff ff ff       	mov    $0xffffffff,%eax
 80497b8:	eb 15                	jmp    80497cf <rio_writen+0x67>
 80497ba:	8b 45 f0             	mov    -0x10(%ebp),%eax
 80497bd:	29 45 ec             	sub    %eax,-0x14(%ebp)
 80497c0:	8b 45 f0             	mov    -0x10(%ebp),%eax
 80497c3:	01 45 f4             	add    %eax,-0xc(%ebp)
 80497c6:	83 7d ec 00          	cmpl   $0x0,-0x14(%ebp)
 80497ca:	75 b0                	jne    804977c <rio_writen+0x14>
 80497cc:	8b 45 10             	mov    0x10(%ebp),%eax
 80497cf:	c9                   	leave  
 80497d0:	c3                   	ret    

080497d1 <urlencode>:
 80497d1:	55                   	push   %ebp
 80497d2:	89 e5                	mov    %esp,%ebp
 80497d4:	57                   	push   %edi
 80497d5:	83 ec 34             	sub    $0x34,%esp
 80497d8:	8b 45 08             	mov    0x8(%ebp),%eax
 80497db:	89 45 e4             	mov    %eax,-0x1c(%ebp)
 80497de:	8b 45 0c             	mov    0xc(%ebp),%eax
 80497e1:	89 45 e0             	mov    %eax,-0x20(%ebp)
 80497e4:	65 a1 14 00 00 00    	mov    %gs:0x14,%eax
 80497ea:	89 45 f4             	mov    %eax,-0xc(%ebp)
 80497ed:	31 c0                	xor    %eax,%eax
 80497ef:	8b 45 e4             	mov    -0x1c(%ebp),%eax
 80497f2:	c7 45 dc ff ff ff ff 	movl   $0xffffffff,-0x24(%ebp)
 80497f9:	89 c2                	mov    %eax,%edx
 80497fb:	b8 00 00 00 00       	mov    $0x0,%eax
 8049800:	8b 4d dc             	mov    -0x24(%ebp),%ecx
 8049803:	89 d7                	mov    %edx,%edi
 8049805:	f2 ae                	repnz scas %es:(%edi),%al
 8049807:	89 c8                	mov    %ecx,%eax
 8049809:	f7 d0                	not    %eax
 804980b:	83 e8 01             	sub    $0x1,%eax
 804980e:	89 45 e8             	mov    %eax,-0x18(%ebp)
 8049811:	e9 07 01 00 00       	jmp    804991d <urlencode+0x14c>
 8049816:	8b 45 e4             	mov    -0x1c(%ebp),%eax
 8049819:	0f b6 00             	movzbl (%eax),%eax
 804981c:	3c 2a                	cmp    $0x2a,%al
 804981e:	74 5a                	je     804987a <urlencode+0xa9>
 8049820:	8b 45 e4             	mov    -0x1c(%ebp),%eax
 8049823:	0f b6 00             	movzbl (%eax),%eax
 8049826:	3c 2d                	cmp    $0x2d,%al
 8049828:	74 50                	je     804987a <urlencode+0xa9>
 804982a:	8b 45 e4             	mov    -0x1c(%ebp),%eax
 804982d:	0f b6 00             	movzbl (%eax),%eax
 8049830:	3c 2e                	cmp    $0x2e,%al
 8049832:	74 46                	je     804987a <urlencode+0xa9>
 8049834:	8b 45 e4             	mov    -0x1c(%ebp),%eax
 8049837:	0f b6 00             	movzbl (%eax),%eax
 804983a:	3c 5f                	cmp    $0x5f,%al
 804983c:	74 3c                	je     804987a <urlencode+0xa9>
 804983e:	8b 45 e4             	mov    -0x1c(%ebp),%eax
 8049841:	0f b6 00             	movzbl (%eax),%eax
 8049844:	3c 2f                	cmp    $0x2f,%al
 8049846:	76 0a                	jbe    8049852 <urlencode+0x81>
 8049848:	8b 45 e4             	mov    -0x1c(%ebp),%eax
 804984b:	0f b6 00             	movzbl (%eax),%eax
 804984e:	3c 39                	cmp    $0x39,%al
 8049850:	76 28                	jbe    804987a <urlencode+0xa9>
 8049852:	8b 45 e4             	mov    -0x1c(%ebp),%eax
 8049855:	0f b6 00             	movzbl (%eax),%eax
 8049858:	3c 40                	cmp    $0x40,%al
 804985a:	76 0a                	jbe    8049866 <urlencode+0x95>
 804985c:	8b 45 e4             	mov    -0x1c(%ebp),%eax
 804985f:	0f b6 00             	movzbl (%eax),%eax
 8049862:	3c 5a                	cmp    $0x5a,%al
 8049864:	76 14                	jbe    804987a <urlencode+0xa9>
 8049866:	8b 45 e4             	mov    -0x1c(%ebp),%eax
 8049869:	0f b6 00             	movzbl (%eax),%eax
 804986c:	3c 60                	cmp    $0x60,%al
 804986e:	76 1e                	jbe    804988e <urlencode+0xbd>
 8049870:	8b 45 e4             	mov    -0x1c(%ebp),%eax
 8049873:	0f b6 00             	movzbl (%eax),%eax
 8049876:	3c 7a                	cmp    $0x7a,%al
 8049878:	77 14                	ja     804988e <urlencode+0xbd>
 804987a:	8b 45 e4             	mov    -0x1c(%ebp),%eax
 804987d:	0f b6 10             	movzbl (%eax),%edx
 8049880:	8b 45 e0             	mov    -0x20(%ebp),%eax
 8049883:	88 10                	mov    %dl,(%eax)
 8049885:	83 45 e0 01          	addl   $0x1,-0x20(%ebp)
 8049889:	e9 8b 00 00 00       	jmp    8049919 <urlencode+0x148>
 804988e:	8b 45 e4             	mov    -0x1c(%ebp),%eax
 8049891:	0f b6 00             	movzbl (%eax),%eax
 8049894:	3c 20                	cmp    $0x20,%al
 8049896:	75 0c                	jne    80498a4 <urlencode+0xd3>
 8049898:	8b 45 e0             	mov    -0x20(%ebp),%eax
 804989b:	c6 00 2b             	movb   $0x2b,(%eax)
 804989e:	83 45 e0 01          	addl   $0x1,-0x20(%ebp)
 80498a2:	eb 75                	jmp    8049919 <urlencode+0x148>
 80498a4:	8b 45 e4             	mov    -0x1c(%ebp),%eax
 80498a7:	0f b6 00             	movzbl (%eax),%eax
 80498aa:	3c 1f                	cmp    $0x1f,%al
 80498ac:	76 0a                	jbe    80498b8 <urlencode+0xe7>
 80498ae:	8b 45 e4             	mov    -0x1c(%ebp),%eax
 80498b1:	0f b6 00             	movzbl (%eax),%eax
 80498b4:	84 c0                	test   %al,%al
 80498b6:	79 0a                	jns    80498c2 <urlencode+0xf1>
 80498b8:	8b 45 e4             	mov    -0x1c(%ebp),%eax
 80498bb:	0f b6 00             	movzbl (%eax),%eax
 80498be:	3c 09                	cmp    $0x9,%al
 80498c0:	75 50                	jne    8049912 <urlencode+0x141>
 80498c2:	8b 45 e4             	mov    -0x1c(%ebp),%eax
 80498c5:	0f b6 00             	movzbl (%eax),%eax
 80498c8:	0f b6 d0             	movzbl %al,%edx
 80498cb:	b8 68 ab 04 08       	mov    $0x804ab68,%eax
 80498d0:	89 54 24 08          	mov    %edx,0x8(%esp)
 80498d4:	89 44 24 04          	mov    %eax,0x4(%esp)
 80498d8:	8d 45 ec             	lea    -0x14(%ebp),%eax
 80498db:	89 04 24             	mov    %eax,(%esp)
 80498de:	e8 fd f0 ff ff       	call   80489e0 <sprintf@plt>
 80498e3:	0f b6 45 ec          	movzbl -0x14(%ebp),%eax
 80498e7:	89 c2                	mov    %eax,%edx
 80498e9:	8b 45 e0             	mov    -0x20(%ebp),%eax
 80498ec:	88 10                	mov    %dl,(%eax)
 80498ee:	83 45 e0 01          	addl   $0x1,-0x20(%ebp)
 80498f2:	0f b6 45 ed          	movzbl -0x13(%ebp),%eax
 80498f6:	89 c2                	mov    %eax,%edx
 80498f8:	8b 45 e0             	mov    -0x20(%ebp),%eax
 80498fb:	88 10                	mov    %dl,(%eax)
 80498fd:	83 45 e0 01          	addl   $0x1,-0x20(%ebp)
 8049901:	0f b6 45 ee          	movzbl -0x12(%ebp),%eax
 8049905:	89 c2                	mov    %eax,%edx
 8049907:	8b 45 e0             	mov    -0x20(%ebp),%eax
 804990a:	88 10                	mov    %dl,(%eax)
 804990c:	83 45 e0 01          	addl   $0x1,-0x20(%ebp)
 8049910:	eb 07                	jmp    8049919 <urlencode+0x148>
 8049912:	b8 ff ff ff ff       	mov    $0xffffffff,%eax
 8049917:	eb 1c                	jmp    8049935 <urlencode+0x164>
 8049919:	83 45 e4 01          	addl   $0x1,-0x1c(%ebp)
 804991d:	83 7d e8 00          	cmpl   $0x0,-0x18(%ebp)
 8049921:	0f 95 c0             	setne  %al
 8049924:	83 6d e8 01          	subl   $0x1,-0x18(%ebp)
 8049928:	84 c0                	test   %al,%al
 804992a:	0f 85 e6 fe ff ff    	jne    8049816 <urlencode+0x45>
 8049930:	b8 00 00 00 00       	mov    $0x0,%eax
 8049935:	8b 55 f4             	mov    -0xc(%ebp),%edx
 8049938:	65 33 15 14 00 00 00 	xor    %gs:0x14,%edx
 804993f:	74 05                	je     8049946 <urlencode+0x175>
 8049941:	e8 3a ef ff ff       	call   8048880 <__stack_chk_fail@plt>
 8049946:	83 c4 34             	add    $0x34,%esp
 8049949:	5f                   	pop    %edi
 804994a:	5d                   	pop    %ebp
 804994b:	c3                   	ret    

0804994c <submitr>:
 804994c:	55                   	push   %ebp
 804994d:	89 e5                	mov    %esp,%ebp
 804994f:	57                   	push   %edi
 8049950:	56                   	push   %esi
 8049951:	53                   	push   %ebx
 8049952:	81 ec 8c a0 00 00    	sub    $0xa08c,%esp
 8049958:	8b 45 08             	mov    0x8(%ebp),%eax
 804995b:	89 85 a4 5f ff ff    	mov    %eax,-0xa05c(%ebp)
 8049961:	8b 45 10             	mov    0x10(%ebp),%eax
 8049964:	89 85 a0 5f ff ff    	mov    %eax,-0xa060(%ebp)
 804996a:	8b 45 14             	mov    0x14(%ebp),%eax
 804996d:	89 85 9c 5f ff ff    	mov    %eax,-0xa064(%ebp)
 8049973:	8b 45 18             	mov    0x18(%ebp),%eax
 8049976:	89 85 98 5f ff ff    	mov    %eax,-0xa068(%ebp)
 804997c:	8b 45 1c             	mov    0x1c(%ebp),%eax
 804997f:	89 85 94 5f ff ff    	mov    %eax,-0xa06c(%ebp)
 8049985:	8b 45 20             	mov    0x20(%ebp),%eax
 8049988:	89 85 90 5f ff ff    	mov    %eax,-0xa070(%ebp)
 804998e:	65 a1 14 00 00 00    	mov    %gs:0x14,%eax
 8049994:	89 45 e4             	mov    %eax,-0x1c(%ebp)
 8049997:	31 c0                	xor    %eax,%eax
 8049999:	c7 85 b4 5f ff ff 00 	movl   $0x0,-0xa04c(%ebp)
 80499a0:	00 00 00 
 80499a3:	c7 44 24 08 00 00 00 	movl   $0x0,0x8(%esp)
 80499aa:	00 
 80499ab:	c7 44 24 04 01 00 00 	movl   $0x1,0x4(%esp)
 80499b2:	00 
 80499b3:	c7 04 24 02 00 00 00 	movl   $0x2,(%esp)
 80499ba:	e8 31 f0 ff ff       	call   80489f0 <socket@plt>
 80499bf:	89 85 b8 5f ff ff    	mov    %eax,-0xa048(%ebp)
 80499c5:	83 bd b8 5f ff ff 00 	cmpl   $0x0,-0xa048(%ebp)
 80499cc:	79 51                	jns    8049a1f <submitr+0xd3>
 80499ce:	ba 70 ab 04 08       	mov    $0x804ab70,%edx
 80499d3:	8b 85 90 5f ff ff    	mov    -0xa070(%ebp),%eax
 80499d9:	8b 0a                	mov    (%edx),%ecx
 80499db:	89 08                	mov    %ecx,(%eax)
 80499dd:	8b 4a 04             	mov    0x4(%edx),%ecx
 80499e0:	89 48 04             	mov    %ecx,0x4(%eax)
 80499e3:	8b 4a 08             	mov    0x8(%edx),%ecx
 80499e6:	89 48 08             	mov    %ecx,0x8(%eax)
 80499e9:	8b 4a 0c             	mov    0xc(%edx),%ecx
 80499ec:	89 48 0c             	mov    %ecx,0xc(%eax)
 80499ef:	8b 4a 10             	mov    0x10(%edx),%ecx
 80499f2:	89 48 10             	mov    %ecx,0x10(%eax)
 80499f5:	8b 4a 14             	mov    0x14(%edx),%ecx
 80499f8:	89 48 14             	mov    %ecx,0x14(%eax)
 80499fb:	8b 4a 18             	mov    0x18(%edx),%ecx
 80499fe:	89 48 18             	mov    %ecx,0x18(%eax)
 8049a01:	8b 4a 1c             	mov    0x1c(%edx),%ecx
 8049a04:	89 48 1c             	mov    %ecx,0x1c(%eax)
 8049a07:	8b 4a 20             	mov    0x20(%edx),%ecx
 8049a0a:	89 48 20             	mov    %ecx,0x20(%eax)
 8049a0d:	0f b7 52 24          	movzwl 0x24(%edx),%edx
 8049a11:	66 89 50 24          	mov    %dx,0x24(%eax)
 8049a15:	b8 ff ff ff ff       	mov    $0xffffffff,%eax
 8049a1a:	e9 f7 06 00 00       	jmp    804a116 <submitr+0x7ca>
 8049a1f:	8b 85 a4 5f ff ff    	mov    -0xa05c(%ebp),%eax
 8049a25:	89 04 24             	mov    %eax,(%esp)
 8049a28:	e8 e3 ef ff ff       	call   8048a10 <gethostbyname@plt>
 8049a2d:	89 85 bc 5f ff ff    	mov    %eax,-0xa044(%ebp)
 8049a33:	83 bd bc 5f ff ff 00 	cmpl   $0x0,-0xa044(%ebp)
 8049a3a:	75 39                	jne    8049a75 <submitr+0x129>
 8049a3c:	b8 98 ab 04 08       	mov    $0x804ab98,%eax
 8049a41:	8b 95 a4 5f ff ff    	mov    -0xa05c(%ebp),%edx
 8049a47:	89 54 24 08          	mov    %edx,0x8(%esp)
 8049a4b:	89 44 24 04          	mov    %eax,0x4(%esp)
 8049a4f:	8b 85 90 5f ff ff    	mov    -0xa070(%ebp),%eax
 8049a55:	89 04 24             	mov    %eax,(%esp)
 8049a58:	e8 83 ef ff ff       	call   80489e0 <sprintf@plt>
 8049a5d:	8b 85 b8 5f ff ff    	mov    -0xa048(%ebp),%eax
 8049a63:	89 04 24             	mov    %eax,(%esp)
 8049a66:	e8 c5 ef ff ff       	call   8048a30 <close@plt>
 8049a6b:	b8 ff ff ff ff       	mov    $0xffffffff,%eax
 8049a70:	e9 a1 06 00 00       	jmp    804a116 <submitr+0x7ca>
 8049a75:	8d 45 d4             	lea    -0x2c(%ebp),%eax
 8049a78:	c7 00 00 00 00 00    	movl   $0x0,(%eax)
 8049a7e:	c7 40 04 00 00 00 00 	movl   $0x0,0x4(%eax)
 8049a85:	c7 40 08 00 00 00 00 	movl   $0x0,0x8(%eax)
 8049a8c:	c7 40 0c 00 00 00 00 	movl   $0x0,0xc(%eax)
 8049a93:	66 c7 45 d4 02 00    	movw   $0x2,-0x2c(%ebp)
 8049a99:	8b 85 bc 5f ff ff    	mov    -0xa044(%ebp),%eax
 8049a9f:	8b 40 0c             	mov    0xc(%eax),%eax
 8049aa2:	89 c2                	mov    %eax,%edx
 8049aa4:	8b 85 bc 5f ff ff    	mov    -0xa044(%ebp),%eax
 8049aaa:	8b 40 10             	mov    0x10(%eax),%eax
 8049aad:	8b 00                	mov    (%eax),%eax
 8049aaf:	89 54 24 08          	mov    %edx,0x8(%esp)
 8049ab3:	8d 55 d4             	lea    -0x2c(%ebp),%edx
 8049ab6:	83 c2 04             	add    $0x4,%edx
 8049ab9:	89 54 24 04          	mov    %edx,0x4(%esp)
 8049abd:	89 04 24             	mov    %eax,(%esp)
 8049ac0:	e8 fb ed ff ff       	call   80488c0 <bcopy@plt>
 8049ac5:	8b 45 0c             	mov    0xc(%ebp),%eax
 8049ac8:	0f b7 c0             	movzwl %ax,%eax
 8049acb:	89 04 24             	mov    %eax,(%esp)
 8049ace:	e8 cd ed ff ff       	call   80488a0 <htons@plt>
 8049ad3:	66 89 45 d6          	mov    %ax,-0x2a(%ebp)
 8049ad7:	c7 44 24 08 10 00 00 	movl   $0x10,0x8(%esp)
 8049ade:	00 
 8049adf:	8d 45 d4             	lea    -0x2c(%ebp),%eax
 8049ae2:	89 44 24 04          	mov    %eax,0x4(%esp)
 8049ae6:	8b 85 b8 5f ff ff    	mov    -0xa048(%ebp),%eax
 8049aec:	89 04 24             	mov    %eax,(%esp)
 8049aef:	e8 2c ef ff ff       	call   8048a20 <connect@plt>
 8049af4:	85 c0                	test   %eax,%eax
 8049af6:	79 39                	jns    8049b31 <submitr+0x1e5>
 8049af8:	b8 c4 ab 04 08       	mov    $0x804abc4,%eax
 8049afd:	8b 95 a4 5f ff ff    	mov    -0xa05c(%ebp),%edx
 8049b03:	89 54 24 08          	mov    %edx,0x8(%esp)
 8049b07:	89 44 24 04          	mov    %eax,0x4(%esp)
 8049b0b:	8b 85 90 5f ff ff    	mov    -0xa070(%ebp),%eax
 8049b11:	89 04 24             	mov    %eax,(%esp)
 8049b14:	e8 c7 ee ff ff       	call   80489e0 <sprintf@plt>
 8049b19:	8b 85 b8 5f ff ff    	mov    -0xa048(%ebp),%eax
 8049b1f:	89 04 24             	mov    %eax,(%esp)
 8049b22:	e8 09 ef ff ff       	call   8048a30 <close@plt>
 8049b27:	b8 ff ff ff ff       	mov    $0xffffffff,%eax
 8049b2c:	e9 e5 05 00 00       	jmp    804a116 <submitr+0x7ca>
 8049b31:	8b 85 94 5f ff ff    	mov    -0xa06c(%ebp),%eax
 8049b37:	c7 85 8c 5f ff ff ff 	movl   $0xffffffff,-0xa074(%ebp)
 8049b3e:	ff ff ff 
 8049b41:	89 c2                	mov    %eax,%edx
 8049b43:	b8 00 00 00 00       	mov    $0x0,%eax
 8049b48:	8b 8d 8c 5f ff ff    	mov    -0xa074(%ebp),%ecx
 8049b4e:	89 d7                	mov    %edx,%edi
 8049b50:	f2 ae                	repnz scas %es:(%edi),%al
 8049b52:	89 c8                	mov    %ecx,%eax
 8049b54:	f7 d0                	not    %eax
 8049b56:	83 e8 01             	sub    $0x1,%eax
 8049b59:	89 85 c0 5f ff ff    	mov    %eax,-0xa040(%ebp)
 8049b5f:	8b 85 a0 5f ff ff    	mov    -0xa060(%ebp),%eax
 8049b65:	c7 85 8c 5f ff ff ff 	movl   $0xffffffff,-0xa074(%ebp)
 8049b6c:	ff ff ff 
 8049b6f:	89 c2                	mov    %eax,%edx
 8049b71:	b8 00 00 00 00       	mov    $0x0,%eax
 8049b76:	8b 8d 8c 5f ff ff    	mov    -0xa074(%ebp),%ecx
 8049b7c:	89 d7                	mov    %edx,%edi
 8049b7e:	f2 ae                	repnz scas %es:(%edi),%al
 8049b80:	89 c8                	mov    %ecx,%eax
 8049b82:	f7 d0                	not    %eax
 8049b84:	8d 58 ff             	lea    -0x1(%eax),%ebx
 8049b87:	8b 85 9c 5f ff ff    	mov    -0xa064(%ebp),%eax
 8049b8d:	c7 85 8c 5f ff ff ff 	movl   $0xffffffff,-0xa074(%ebp)
 8049b94:	ff ff ff 
 8049b97:	89 c2                	mov    %eax,%edx
 8049b99:	b8 00 00 00 00       	mov    $0x0,%eax
 8049b9e:	8b 8d 8c 5f ff ff    	mov    -0xa074(%ebp),%ecx
 8049ba4:	89 d7                	mov    %edx,%edi
 8049ba6:	f2 ae                	repnz scas %es:(%edi),%al
 8049ba8:	89 c8                	mov    %ecx,%eax
 8049baa:	f7 d0                	not    %eax
 8049bac:	83 e8 01             	sub    $0x1,%eax
 8049baf:	01 c3                	add    %eax,%ebx
 8049bb1:	8b 85 98 5f ff ff    	mov    -0xa068(%ebp),%eax
 8049bb7:	c7 85 8c 5f ff ff ff 	movl   $0xffffffff,-0xa074(%ebp)
 8049bbe:	ff ff ff 
 8049bc1:	89 c2                	mov    %eax,%edx
 8049bc3:	b8 00 00 00 00       	mov    $0x0,%eax
 8049bc8:	8b 8d 8c 5f ff ff    	mov    -0xa074(%ebp),%ecx
 8049bce:	89 d7                	mov    %edx,%edi
 8049bd0:	f2 ae                	repnz scas %es:(%edi),%al
 8049bd2:	89 c8                	mov    %ecx,%eax
 8049bd4:	f7 d0                	not    %eax
 8049bd6:	83 e8 01             	sub    $0x1,%eax
 8049bd9:	8d 0c 03             	lea    (%ebx,%eax,1),%ecx
 8049bdc:	8b 95 c0 5f ff ff    	mov    -0xa040(%ebp),%edx
 8049be2:	89 d0                	mov    %edx,%eax
 8049be4:	01 c0                	add    %eax,%eax
 8049be6:	01 d0                	add    %edx,%eax
 8049be8:	01 c8                	add    %ecx,%eax
 8049bea:	83 e8 80             	sub    $0xffffff80,%eax
 8049bed:	89 85 c4 5f ff ff    	mov    %eax,-0xa03c(%ebp)
 8049bf3:	81 bd c4 5f ff ff 00 	cmpl   $0x2000,-0xa03c(%ebp)
 8049bfa:	20 00 00 
 8049bfd:	76 75                	jbe    8049c74 <submitr+0x328>
 8049bff:	ba ec ab 04 08       	mov    $0x804abec,%edx
 8049c04:	8b 85 90 5f ff ff    	mov    -0xa070(%ebp),%eax
 8049c0a:	8b 0a                	mov    (%edx),%ecx
 8049c0c:	89 08                	mov    %ecx,(%eax)
 8049c0e:	8b 4a 04             	mov    0x4(%edx),%ecx
 8049c11:	89 48 04             	mov    %ecx,0x4(%eax)
 8049c14:	8b 4a 08             	mov    0x8(%edx),%ecx
 8049c17:	89 48 08             	mov    %ecx,0x8(%eax)
 8049c1a:	8b 4a 0c             	mov    0xc(%edx),%ecx
 8049c1d:	89 48 0c             	mov    %ecx,0xc(%eax)
 8049c20:	8b 4a 10             	mov    0x10(%edx),%ecx
 8049c23:	89 48 10             	mov    %ecx,0x10(%eax)
 8049c26:	8b 4a 14             	mov    0x14(%edx),%ecx
 8049c29:	89 48 14             	mov    %ecx,0x14(%eax)
 8049c2c:	8b 4a 18             	mov    0x18(%edx),%ecx
 8049c2f:	89 48 18             	mov    %ecx,0x18(%eax)
 8049c32:	8b 4a 1c             	mov    0x1c(%edx),%ecx
 8049c35:	89 48 1c             	mov    %ecx,0x1c(%eax)
 8049c38:	8b 4a 20             	mov    0x20(%edx),%ecx
 8049c3b:	89 48 20             	mov    %ecx,0x20(%eax)
 8049c3e:	8b 4a 24             	mov    0x24(%edx),%ecx
 8049c41:	89 48 24             	mov    %ecx,0x24(%eax)
 8049c44:	8b 4a 28             	mov    0x28(%edx),%ecx
 8049c47:	89 48 28             	mov    %ecx,0x28(%eax)
 8049c4a:	8b 4a 2c             	mov    0x2c(%edx),%ecx
 8049c4d:	89 48 2c             	mov    %ecx,0x2c(%eax)
 8049c50:	8b 4a 30             	mov    0x30(%edx),%ecx
 8049c53:	89 48 30             	mov    %ecx,0x30(%eax)
 8049c56:	8b 52 34             	mov    0x34(%edx),%edx
 8049c59:	89 50 34             	mov    %edx,0x34(%eax)
 8049c5c:	8b 85 b8 5f ff ff    	mov    -0xa048(%ebp),%eax
 8049c62:	89 04 24             	mov    %eax,(%esp)
 8049c65:	e8 c6 ed ff ff       	call   8048a30 <close@plt>
 8049c6a:	b8 ff ff ff ff       	mov    $0xffffffff,%eax
 8049c6f:	e9 a2 04 00 00       	jmp    804a116 <submitr+0x7ca>
 8049c74:	8d 85 d4 9f ff ff    	lea    -0x602c(%ebp),%eax
 8049c7a:	89 c3                	mov    %eax,%ebx
 8049c7c:	b8 00 00 00 00       	mov    $0x0,%eax
 8049c81:	ba 00 08 00 00       	mov    $0x800,%edx
 8049c86:	89 df                	mov    %ebx,%edi
 8049c88:	89 d1                	mov    %edx,%ecx
 8049c8a:	f3 ab                	rep stos %eax,%es:(%edi)
 8049c8c:	8d 85 d4 9f ff ff    	lea    -0x602c(%ebp),%eax
 8049c92:	89 44 24 04          	mov    %eax,0x4(%esp)
 8049c96:	8b 85 94 5f ff ff    	mov    -0xa06c(%ebp),%eax
 8049c9c:	89 04 24             	mov    %eax,(%esp)
 8049c9f:	e8 2d fb ff ff       	call   80497d1 <urlencode>
 8049ca4:	85 c0                	test   %eax,%eax
 8049ca6:	0f 89 8d 00 00 00    	jns    8049d39 <submitr+0x3ed>
 8049cac:	ba 24 ac 04 08       	mov    $0x804ac24,%edx
 8049cb1:	8b 85 90 5f ff ff    	mov    -0xa070(%ebp),%eax
 8049cb7:	bb 43 00 00 00       	mov    $0x43,%ebx
 8049cbc:	89 c1                	mov    %eax,%ecx
 8049cbe:	83 e1 01             	and    $0x1,%ecx
 8049cc1:	85 c9                	test   %ecx,%ecx
 8049cc3:	74 0e                	je     8049cd3 <submitr+0x387>
 8049cc5:	0f b6 0a             	movzbl (%edx),%ecx
 8049cc8:	88 08                	mov    %cl,(%eax)
 8049cca:	83 c0 01             	add    $0x1,%eax
 8049ccd:	83 c2 01             	add    $0x1,%edx
 8049cd0:	83 eb 01             	sub    $0x1,%ebx
 8049cd3:	89 c1                	mov    %eax,%ecx
 8049cd5:	83 e1 02             	and    $0x2,%ecx
 8049cd8:	85 c9                	test   %ecx,%ecx
 8049cda:	74 0f                	je     8049ceb <submitr+0x39f>
 8049cdc:	0f b7 0a             	movzwl (%edx),%ecx
 8049cdf:	66 89 08             	mov    %cx,(%eax)
 8049ce2:	83 c0 02             	add    $0x2,%eax
 8049ce5:	83 c2 02             	add    $0x2,%edx
 8049ce8:	83 eb 02             	sub    $0x2,%ebx
 8049ceb:	89 d9                	mov    %ebx,%ecx
 8049ced:	c1 e9 02             	shr    $0x2,%ecx
 8049cf0:	89 c7                	mov    %eax,%edi
 8049cf2:	89 d6                	mov    %edx,%esi
 8049cf4:	f3 a5                	rep movsl %ds:(%esi),%es:(%edi)
 8049cf6:	89 f2                	mov    %esi,%edx
 8049cf8:	89 f8                	mov    %edi,%eax
 8049cfa:	b9 00 00 00 00       	mov    $0x0,%ecx
 8049cff:	89 de                	mov    %ebx,%esi
 8049d01:	83 e6 02             	and    $0x2,%esi
 8049d04:	85 f6                	test   %esi,%esi
 8049d06:	74 0b                	je     8049d13 <submitr+0x3c7>
 8049d08:	0f b7 34 0a          	movzwl (%edx,%ecx,1),%esi
 8049d0c:	66 89 34 08          	mov    %si,(%eax,%ecx,1)
 8049d10:	83 c1 02             	add    $0x2,%ecx
 8049d13:	83 e3 01             	and    $0x1,%ebx
 8049d16:	85 db                	test   %ebx,%ebx
 8049d18:	74 07                	je     8049d21 <submitr+0x3d5>
 8049d1a:	0f b6 14 0a          	movzbl (%edx,%ecx,1),%edx
 8049d1e:	88 14 08             	mov    %dl,(%eax,%ecx,1)
 8049d21:	8b 85 b8 5f ff ff    	mov    -0xa048(%ebp),%eax
 8049d27:	89 04 24             	mov    %eax,(%esp)
 8049d2a:	e8 01 ed ff ff       	call   8048a30 <close@plt>
 8049d2f:	b8 ff ff ff ff       	mov    $0xffffffff,%eax
 8049d34:	e9 dd 03 00 00       	jmp    804a116 <submitr+0x7ca>
 8049d39:	b8 68 ac 04 08       	mov    $0x804ac68,%eax
 8049d3e:	8d 95 d4 9f ff ff    	lea    -0x602c(%ebp),%edx
 8049d44:	89 54 24 14          	mov    %edx,0x14(%esp)
 8049d48:	8b 95 98 5f ff ff    	mov    -0xa068(%ebp),%edx
 8049d4e:	89 54 24 10          	mov    %edx,0x10(%esp)
 8049d52:	8b 95 9c 5f ff ff    	mov    -0xa064(%ebp),%edx
 8049d58:	89 54 24 0c          	mov    %edx,0xc(%esp)
 8049d5c:	8b 95 a0 5f ff ff    	mov    -0xa060(%ebp),%edx
 8049d62:	89 54 24 08          	mov    %edx,0x8(%esp)
 8049d66:	89 44 24 04          	mov    %eax,0x4(%esp)
 8049d6a:	8d 85 d4 7f ff ff    	lea    -0x802c(%ebp),%eax
 8049d70:	89 04 24             	mov    %eax,(%esp)
 8049d73:	e8 68 ec ff ff       	call   80489e0 <sprintf@plt>
 8049d78:	8d 85 d4 7f ff ff    	lea    -0x802c(%ebp),%eax
 8049d7e:	c7 85 8c 5f ff ff ff 	movl   $0xffffffff,-0xa074(%ebp)
 8049d85:	ff ff ff 
 8049d88:	89 c2                	mov    %eax,%edx
 8049d8a:	b8 00 00 00 00       	mov    $0x0,%eax
 8049d8f:	8b 8d 8c 5f ff ff    	mov    -0xa074(%ebp),%ecx
 8049d95:	89 d7                	mov    %edx,%edi
 8049d97:	f2 ae                	repnz scas %es:(%edi),%al
 8049d99:	89 c8                	mov    %ecx,%eax
 8049d9b:	f7 d0                	not    %eax
 8049d9d:	83 e8 01             	sub    $0x1,%eax
 8049da0:	89 44 24 08          	mov    %eax,0x8(%esp)
 8049da4:	8d 85 d4 7f ff ff    	lea    -0x802c(%ebp),%eax
 8049daa:	89 44 24 04          	mov    %eax,0x4(%esp)
 8049dae:	8b 85 b8 5f ff ff    	mov    -0xa048(%ebp),%eax
 8049db4:	89 04 24             	mov    %eax,(%esp)
 8049db7:	e8 ac f9 ff ff       	call   8049768 <rio_writen>
 8049dbc:	85 c0                	test   %eax,%eax
 8049dbe:	79 63                	jns    8049e23 <submitr+0x4d7>
 8049dc0:	ba b4 ac 04 08       	mov    $0x804acb4,%edx
 8049dc5:	8b 85 90 5f ff ff    	mov    -0xa070(%ebp),%eax
 8049dcb:	8b 0a                	mov    (%edx),%ecx
 8049dcd:	89 08                	mov    %ecx,(%eax)
 8049dcf:	8b 4a 04             	mov    0x4(%edx),%ecx
 8049dd2:	89 48 04             	mov    %ecx,0x4(%eax)
 8049dd5:	8b 4a 08             	mov    0x8(%edx),%ecx
 8049dd8:	89 48 08             	mov    %ecx,0x8(%eax)
 8049ddb:	8b 4a 0c             	mov    0xc(%edx),%ecx
 8049dde:	89 48 0c             	mov    %ecx,0xc(%eax)
 8049de1:	8b 4a 10             	mov    0x10(%edx),%ecx
 8049de4:	89 48 10             	mov    %ecx,0x10(%eax)
 8049de7:	8b 4a 14             	mov    0x14(%edx),%ecx
 8049dea:	89 48 14             	mov    %ecx,0x14(%eax)
 8049ded:	8b 4a 18             	mov    0x18(%edx),%ecx
 8049df0:	89 48 18             	mov    %ecx,0x18(%eax)
 8049df3:	8b 4a 1c             	mov    0x1c(%edx),%ecx
 8049df6:	89 48 1c             	mov    %ecx,0x1c(%eax)
 8049df9:	8b 4a 20             	mov    0x20(%edx),%ecx
 8049dfc:	89 48 20             	mov    %ecx,0x20(%eax)
 8049dff:	8b 4a 24             	mov    0x24(%edx),%ecx
 8049e02:	89 48 24             	mov    %ecx,0x24(%eax)
 8049e05:	8b 52 28             	mov    0x28(%edx),%edx
 8049e08:	89 50 28             	mov    %edx,0x28(%eax)
 8049e0b:	8b 85 b8 5f ff ff    	mov    -0xa048(%ebp),%eax
 8049e11:	89 04 24             	mov    %eax,(%esp)
 8049e14:	e8 17 ec ff ff       	call   8048a30 <close@plt>
 8049e19:	b8 ff ff ff ff       	mov    $0xffffffff,%eax
 8049e1e:	e9 f3 02 00 00       	jmp    804a116 <submitr+0x7ca>
 8049e23:	8b 85 b8 5f ff ff    	mov    -0xa048(%ebp),%eax
 8049e29:	89 44 24 04          	mov    %eax,0x4(%esp)
 8049e2d:	8d 85 c8 5f ff ff    	lea    -0xa038(%ebp),%eax
 8049e33:	89 04 24             	mov    %eax,(%esp)
 8049e36:	e8 b4 f7 ff ff       	call   80495ef <rio_readinitb>
 8049e3b:	c7 44 24 08 00 20 00 	movl   $0x2000,0x8(%esp)
 8049e42:	00 
 8049e43:	8d 85 d4 7f ff ff    	lea    -0x802c(%ebp),%eax
 8049e49:	89 44 24 04          	mov    %eax,0x4(%esp)
 8049e4d:	8d 85 c8 5f ff ff    	lea    -0xa038(%ebp),%eax
 8049e53:	89 04 24             	mov    %eax,(%esp)
 8049e56:	e8 8a f8 ff ff       	call   80496e5 <rio_readlineb>
 8049e5b:	85 c0                	test   %eax,%eax
 8049e5d:	7f 77                	jg     8049ed6 <submitr+0x58a>
 8049e5f:	ba e0 ac 04 08       	mov    $0x804ace0,%edx
 8049e64:	8b 85 90 5f ff ff    	mov    -0xa070(%ebp),%eax
 8049e6a:	8b 0a                	mov    (%edx),%ecx
 8049e6c:	89 08                	mov    %ecx,(%eax)
 8049e6e:	8b 4a 04             	mov    0x4(%edx),%ecx
 8049e71:	89 48 04             	mov    %ecx,0x4(%eax)
 8049e74:	8b 4a 08             	mov    0x8(%edx),%ecx
 8049e77:	89 48 08             	mov    %ecx,0x8(%eax)
 8049e7a:	8b 4a 0c             	mov    0xc(%edx),%ecx
 8049e7d:	89 48 0c             	mov    %ecx,0xc(%eax)
 8049e80:	8b 4a 10             	mov    0x10(%edx),%ecx
 8049e83:	89 48 10             	mov    %ecx,0x10(%eax)
 8049e86:	8b 4a 14             	mov    0x14(%edx),%ecx
 8049e89:	89 48 14             	mov    %ecx,0x14(%eax)
 8049e8c:	8b 4a 18             	mov    0x18(%edx),%ecx
 8049e8f:	89 48 18             	mov    %ecx,0x18(%eax)
 8049e92:	8b 4a 1c             	mov    0x1c(%edx),%ecx
 8049e95:	89 48 1c             	mov    %ecx,0x1c(%eax)
 8049e98:	8b 4a 20             	mov    0x20(%edx),%ecx
 8049e9b:	89 48 20             	mov    %ecx,0x20(%eax)
 8049e9e:	8b 4a 24             	mov    0x24(%edx),%ecx
 8049ea1:	89 48 24             	mov    %ecx,0x24(%eax)
 8049ea4:	8b 4a 28             	mov    0x28(%edx),%ecx
 8049ea7:	89 48 28             	mov    %ecx,0x28(%eax)
 8049eaa:	8b 4a 2c             	mov    0x2c(%edx),%ecx
 8049ead:	89 48 2c             	mov    %ecx,0x2c(%eax)
 8049eb0:	8b 4a 30             	mov    0x30(%edx),%ecx
 8049eb3:	89 48 30             	mov    %ecx,0x30(%eax)
 8049eb6:	0f b7 52 34          	movzwl 0x34(%edx),%edx
 8049eba:	66 89 50 34          	mov    %dx,0x34(%eax)
 8049ebe:	8b 85 b8 5f ff ff    	mov    -0xa048(%ebp),%eax
 8049ec4:	89 04 24             	mov    %eax,(%esp)
 8049ec7:	e8 64 eb ff ff       	call   8048a30 <close@plt>
 8049ecc:	b8 ff ff ff ff       	mov    $0xffffffff,%eax
 8049ed1:	e9 40 02 00 00       	jmp    804a116 <submitr+0x7ca>
 8049ed6:	ba 16 ad 04 08       	mov    $0x804ad16,%edx
 8049edb:	8d 85 d4 7f ff ff    	lea    -0x802c(%ebp),%eax
 8049ee1:	8d 8d d4 df ff ff    	lea    -0x202c(%ebp),%ecx
 8049ee7:	89 4c 24 10          	mov    %ecx,0x10(%esp)
 8049eeb:	8d 8d b4 5f ff ff    	lea    -0xa04c(%ebp),%ecx
 8049ef1:	89 4c 24 0c          	mov    %ecx,0xc(%esp)
 8049ef5:	8d 8d d4 bf ff ff    	lea    -0x402c(%ebp),%ecx
 8049efb:	89 4c 24 08          	mov    %ecx,0x8(%esp)
 8049eff:	89 54 24 04          	mov    %edx,0x4(%esp)
 8049f03:	89 04 24             	mov    %eax,(%esp)
 8049f06:	e8 85 ea ff ff       	call   8048990 <__isoc99_sscanf@plt>
 8049f0b:	8b 85 b4 5f ff ff    	mov    -0xa04c(%ebp),%eax
 8049f11:	3d c8 00 00 00       	cmp    $0xc8,%eax
 8049f16:	0f 84 d7 00 00 00    	je     8049ff3 <submitr+0x6a7>
 8049f1c:	8b 95 b4 5f ff ff    	mov    -0xa04c(%ebp),%edx
 8049f22:	b8 28 ad 04 08       	mov    $0x804ad28,%eax
 8049f27:	8d 8d d4 df ff ff    	lea    -0x202c(%ebp),%ecx
 8049f2d:	89 4c 24 0c          	mov    %ecx,0xc(%esp)
 8049f31:	89 54 24 08          	mov    %edx,0x8(%esp)
 8049f35:	89 44 24 04          	mov    %eax,0x4(%esp)
 8049f39:	8b 85 90 5f ff ff    	mov    -0xa070(%ebp),%eax
 8049f3f:	89 04 24             	mov    %eax,(%esp)
 8049f42:	e8 99 ea ff ff       	call   80489e0 <sprintf@plt>
 8049f47:	8b 85 b8 5f ff ff    	mov    -0xa048(%ebp),%eax
 8049f4d:	89 04 24             	mov    %eax,(%esp)
 8049f50:	e8 db ea ff ff       	call   8048a30 <close@plt>
 8049f55:	b8 ff ff ff ff       	mov    $0xffffffff,%eax
 8049f5a:	e9 b7 01 00 00       	jmp    804a116 <submitr+0x7ca>
 8049f5f:	c7 44 24 08 00 20 00 	movl   $0x2000,0x8(%esp)
 8049f66:	00 
 8049f67:	8d 85 d4 7f ff ff    	lea    -0x802c(%ebp),%eax
 8049f6d:	89 44 24 04          	mov    %eax,0x4(%esp)
 8049f71:	8d 85 c8 5f ff ff    	lea    -0xa038(%ebp),%eax
 8049f77:	89 04 24             	mov    %eax,(%esp)
 8049f7a:	e8 66 f7 ff ff       	call   80496e5 <rio_readlineb>
 8049f7f:	85 c0                	test   %eax,%eax
 8049f81:	7f 71                	jg     8049ff4 <submitr+0x6a8>
 8049f83:	ba 58 ad 04 08       	mov    $0x804ad58,%edx
 8049f88:	8b 85 90 5f ff ff    	mov    -0xa070(%ebp),%eax
 8049f8e:	8b 0a                	mov    (%edx),%ecx
 8049f90:	89 08                	mov    %ecx,(%eax)
 8049f92:	8b 4a 04             	mov    0x4(%edx),%ecx
 8049f95:	89 48 04             	mov    %ecx,0x4(%eax)
 8049f98:	8b 4a 08             	mov    0x8(%edx),%ecx
 8049f9b:	89 48 08             	mov    %ecx,0x8(%eax)
 8049f9e:	8b 4a 0c             	mov    0xc(%edx),%ecx
 8049fa1:	89 48 0c             	mov    %ecx,0xc(%eax)
 8049fa4:	8b 4a 10             	mov    0x10(%edx),%ecx
 8049fa7:	89 48 10             	mov    %ecx,0x10(%eax)
 8049faa:	8b 4a 14             	mov    0x14(%edx),%ecx
 8049fad:	89 48 14             	mov    %ecx,0x14(%eax)
 8049fb0:	8b 4a 18             	mov    0x18(%edx),%ecx
 8049fb3:	89 48 18             	mov    %ecx,0x18(%eax)
 8049fb6:	8b 4a 1c             	mov    0x1c(%edx),%ecx
 8049fb9:	89 48 1c             	mov    %ecx,0x1c(%eax)
 8049fbc:	8b 4a 20             	mov    0x20(%edx),%ecx
 8049fbf:	89 48 20             	mov    %ecx,0x20(%eax)
 8049fc2:	8b 4a 24             	mov    0x24(%edx),%ecx
 8049fc5:	89 48 24             	mov    %ecx,0x24(%eax)
 8049fc8:	8b 4a 28             	mov    0x28(%edx),%ecx
 8049fcb:	89 48 28             	mov    %ecx,0x28(%eax)
 8049fce:	8b 4a 2c             	mov    0x2c(%edx),%ecx
 8049fd1:	89 48 2c             	mov    %ecx,0x2c(%eax)
 8049fd4:	0f b6 52 30          	movzbl 0x30(%edx),%edx
 8049fd8:	88 50 30             	mov    %dl,0x30(%eax)
 8049fdb:	8b 85 b8 5f ff ff    	mov    -0xa048(%ebp),%eax
 8049fe1:	89 04 24             	mov    %eax,(%esp)
 8049fe4:	e8 47 ea ff ff       	call   8048a30 <close@plt>
 8049fe9:	b8 ff ff ff ff       	mov    $0xffffffff,%eax
 8049fee:	e9 23 01 00 00       	jmp    804a116 <submitr+0x7ca>
 8049ff3:	90                   	nop
 8049ff4:	8d 85 d4 7f ff ff    	lea    -0x802c(%ebp),%eax
 8049ffa:	89 c2                	mov    %eax,%edx
 8049ffc:	b8 89 ad 04 08       	mov    $0x804ad89,%eax
 804a001:	b9 03 00 00 00       	mov    $0x3,%ecx
 804a006:	89 d6                	mov    %edx,%esi
 804a008:	89 c7                	mov    %eax,%edi
 804a00a:	f3 a6                	repz cmpsb %es:(%edi),%ds:(%esi)
 804a00c:	0f 97 c2             	seta   %dl
 804a00f:	0f 92 c0             	setb   %al
 804a012:	89 d1                	mov    %edx,%ecx
 804a014:	28 c1                	sub    %al,%cl
 804a016:	89 c8                	mov    %ecx,%eax
 804a018:	0f be c0             	movsbl %al,%eax
 804a01b:	85 c0                	test   %eax,%eax
 804a01d:	0f 85 3c ff ff ff    	jne    8049f5f <submitr+0x613>
 804a023:	c7 44 24 08 00 20 00 	movl   $0x2000,0x8(%esp)
 804a02a:	00 
 804a02b:	8d 85 d4 7f ff ff    	lea    -0x802c(%ebp),%eax
 804a031:	89 44 24 04          	mov    %eax,0x4(%esp)
 804a035:	8d 85 c8 5f ff ff    	lea    -0xa038(%ebp),%eax
 804a03b:	89 04 24             	mov    %eax,(%esp)
 804a03e:	e8 a2 f6 ff ff       	call   80496e5 <rio_readlineb>
 804a043:	85 c0                	test   %eax,%eax
 804a045:	7f 72                	jg     804a0b9 <submitr+0x76d>
 804a047:	ba 8c ad 04 08       	mov    $0x804ad8c,%edx
 804a04c:	8b 85 90 5f ff ff    	mov    -0xa070(%ebp),%eax
 804a052:	8b 0a                	mov    (%edx),%ecx
 804a054:	89 08                	mov    %ecx,(%eax)
 804a056:	8b 4a 04             	mov    0x4(%edx),%ecx
 804a059:	89 48 04             	mov    %ecx,0x4(%eax)
 804a05c:	8b 4a 08             	mov    0x8(%edx),%ecx
 804a05f:	89 48 08             	mov    %ecx,0x8(%eax)
 804a062:	8b 4a 0c             	mov    0xc(%edx),%ecx
 804a065:	89 48 0c             	mov    %ecx,0xc(%eax)
 804a068:	8b 4a 10             	mov    0x10(%edx),%ecx
 804a06b:	89 48 10             	mov    %ecx,0x10(%eax)
 804a06e:	8b 4a 14             	mov    0x14(%edx),%ecx
 804a071:	89 48 14             	mov    %ecx,0x14(%eax)
 804a074:	8b 4a 18             	mov    0x18(%edx),%ecx
 804a077:	89 48 18             	mov    %ecx,0x18(%eax)
 804a07a:	8b 4a 1c             	mov    0x1c(%edx),%ecx
 804a07d:	89 48 1c             	mov    %ecx,0x1c(%eax)
 804a080:	8b 4a 20             	mov    0x20(%edx),%ecx
 804a083:	89 48 20             	mov    %ecx,0x20(%eax)
 804a086:	8b 4a 24             	mov    0x24(%edx),%ecx
 804a089:	89 48 24             	mov    %ecx,0x24(%eax)
 804a08c:	8b 4a 28             	mov    0x28(%edx),%ecx
 804a08f:	89 48 28             	mov    %ecx,0x28(%eax)
 804a092:	8b 4a 2c             	mov    0x2c(%edx),%ecx
 804a095:	89 48 2c             	mov    %ecx,0x2c(%eax)
 804a098:	8b 4a 30             	mov    0x30(%edx),%ecx
 804a09b:	89 48 30             	mov    %ecx,0x30(%eax)
 804a09e:	8b 52 34             	mov    0x34(%edx),%edx
 804a0a1:	89 50 34             	mov    %edx,0x34(%eax)
 804a0a4:	8b 85 b8 5f ff ff    	mov    -0xa048(%ebp),%eax
 804a0aa:	89 04 24             	mov    %eax,(%esp)
 804a0ad:	e8 7e e9 ff ff       	call   8048a30 <close@plt>
 804a0b2:	b8 ff ff ff ff       	mov    $0xffffffff,%eax
 804a0b7:	eb 5d                	jmp    804a116 <submitr+0x7ca>
 804a0b9:	8d 85 d4 7f ff ff    	lea    -0x802c(%ebp),%eax
 804a0bf:	89 44 24 04          	mov    %eax,0x4(%esp)
 804a0c3:	8b 85 90 5f ff ff    	mov    -0xa070(%ebp),%eax
 804a0c9:	89 04 24             	mov    %eax,(%esp)
 804a0cc:	e8 ff e7 ff ff       	call   80488d0 <strcpy@plt>
 804a0d1:	8b 85 b8 5f ff ff    	mov    -0xa048(%ebp),%eax
 804a0d7:	89 04 24             	mov    %eax,(%esp)
 804a0da:	e8 51 e9 ff ff       	call   8048a30 <close@plt>
 804a0df:	8b 85 90 5f ff ff    	mov    -0xa070(%ebp),%eax
 804a0e5:	89 c2                	mov    %eax,%edx
 804a0e7:	b8 c4 ad 04 08       	mov    $0x804adc4,%eax
 804a0ec:	b9 03 00 00 00       	mov    $0x3,%ecx
 804a0f1:	89 d6                	mov    %edx,%esi
 804a0f3:	89 c7                	mov    %eax,%edi
 804a0f5:	f3 a6                	repz cmpsb %es:(%edi),%ds:(%esi)
 804a0f7:	0f 97 c2             	seta   %dl
 804a0fa:	0f 92 c0             	setb   %al
 804a0fd:	89 d1                	mov    %edx,%ecx
 804a0ff:	28 c1                	sub    %al,%cl
 804a101:	89 c8                	mov    %ecx,%eax
 804a103:	0f be c0             	movsbl %al,%eax
 804a106:	85 c0                	test   %eax,%eax
 804a108:	75 07                	jne    804a111 <submitr+0x7c5>
 804a10a:	b8 00 00 00 00       	mov    $0x0,%eax
 804a10f:	eb 05                	jmp    804a116 <submitr+0x7ca>
 804a111:	b8 ff ff ff ff       	mov    $0xffffffff,%eax
 804a116:	8b 75 e4             	mov    -0x1c(%ebp),%esi
 804a119:	65 33 35 14 00 00 00 	xor    %gs:0x14,%esi
 804a120:	74 05                	je     804a127 <submitr+0x7db>
 804a122:	e8 59 e7 ff ff       	call   8048880 <__stack_chk_fail@plt>
 804a127:	81 c4 8c a0 00 00    	add    $0xa08c,%esp
 804a12d:	5b                   	pop    %ebx
 804a12e:	5e                   	pop    %esi
 804a12f:	5f                   	pop    %edi
 804a130:	5d                   	pop    %ebp
 804a131:	c3                   	ret    

0804a132 <init_timeout>:
 804a132:	55                   	push   %ebp
 804a133:	89 e5                	mov    %esp,%ebp
 804a135:	83 ec 18             	sub    $0x18,%esp
 804a138:	83 7d 08 00          	cmpl   $0x0,0x8(%ebp)
 804a13c:	74 2e                	je     804a16c <init_timeout+0x3a>
 804a13e:	83 7d 08 00          	cmpl   $0x0,0x8(%ebp)
 804a142:	79 07                	jns    804a14b <init_timeout+0x19>
 804a144:	c7 45 08 02 00 00 00 	movl   $0x2,0x8(%ebp)
 804a14b:	c7 44 24 04 c8 95 04 	movl   $0x80495c8,0x4(%esp)
 804a152:	08 
 804a153:	c7 04 24 0e 00 00 00 	movl   $0xe,(%esp)
 804a15a:	e8 01 e7 ff ff       	call   8048860 <signal@plt>
 804a15f:	8b 45 08             	mov    0x8(%ebp),%eax
 804a162:	89 04 24             	mov    %eax,(%esp)
 804a165:	e8 06 e7 ff ff       	call   8048870 <alarm@plt>
 804a16a:	eb 01                	jmp    804a16d <init_timeout+0x3b>
 804a16c:	90                   	nop
 804a16d:	c9                   	leave  
 804a16e:	c3                   	ret    

0804a16f <init_driver>:
 804a16f:	55                   	push   %ebp
 804a170:	89 e5                	mov    %esp,%ebp
 804a172:	83 ec 58             	sub    $0x58,%esp
 804a175:	8b 45 08             	mov    0x8(%ebp),%eax
 804a178:	89 45 c4             	mov    %eax,-0x3c(%ebp)
 804a17b:	65 a1 14 00 00 00    	mov    %gs:0x14,%eax
 804a181:	89 45 f4             	mov    %eax,-0xc(%ebp)
 804a184:	31 c0                	xor    %eax,%eax
 804a186:	c7 45 d4 c7 ad 04 08 	movl   $0x804adc7,-0x2c(%ebp)
 804a18d:	c7 45 d8 26 47 00 00 	movl   $0x4726,-0x28(%ebp)
 804a194:	c7 44 24 04 01 00 00 	movl   $0x1,0x4(%esp)
 804a19b:	00 
 804a19c:	c7 04 24 0d 00 00 00 	movl   $0xd,(%esp)
 804a1a3:	e8 b8 e6 ff ff       	call   8048860 <signal@plt>
 804a1a8:	c7 44 24 04 01 00 00 	movl   $0x1,0x4(%esp)
 804a1af:	00 
 804a1b0:	c7 04 24 1d 00 00 00 	movl   $0x1d,(%esp)
 804a1b7:	e8 a4 e6 ff ff       	call   8048860 <signal@plt>
 804a1bc:	c7 44 24 04 01 00 00 	movl   $0x1,0x4(%esp)
 804a1c3:	00 
 804a1c4:	c7 04 24 1d 00 00 00 	movl   $0x1d,(%esp)
 804a1cb:	e8 90 e6 ff ff       	call   8048860 <signal@plt>
 804a1d0:	c7 44 24 08 00 00 00 	movl   $0x0,0x8(%esp)
 804a1d7:	00 
 804a1d8:	c7 44 24 04 01 00 00 	movl   $0x1,0x4(%esp)
 804a1df:	00 
 804a1e0:	c7 04 24 02 00 00 00 	movl   $0x2,(%esp)
 804a1e7:	e8 04 e8 ff ff       	call   80489f0 <socket@plt>
 804a1ec:	89 45 dc             	mov    %eax,-0x24(%ebp)
 804a1ef:	83 7d dc 00          	cmpl   $0x0,-0x24(%ebp)
 804a1f3:	79 4e                	jns    804a243 <init_driver+0xd4>
 804a1f5:	ba 70 ab 04 08       	mov    $0x804ab70,%edx
 804a1fa:	8b 45 c4             	mov    -0x3c(%ebp),%eax
 804a1fd:	8b 0a                	mov    (%edx),%ecx
 804a1ff:	89 08                	mov    %ecx,(%eax)
 804a201:	8b 4a 04             	mov    0x4(%edx),%ecx
 804a204:	89 48 04             	mov    %ecx,0x4(%eax)
 804a207:	8b 4a 08             	mov    0x8(%edx),%ecx
 804a20a:	89 48 08             	mov    %ecx,0x8(%eax)
 804a20d:	8b 4a 0c             	mov    0xc(%edx),%ecx
 804a210:	89 48 0c             	mov    %ecx,0xc(%eax)
 804a213:	8b 4a 10             	mov    0x10(%edx),%ecx
 804a216:	89 48 10             	mov    %ecx,0x10(%eax)
 804a219:	8b 4a 14             	mov    0x14(%edx),%ecx
 804a21c:	89 48 14             	mov    %ecx,0x14(%eax)
 804a21f:	8b 4a 18             	mov    0x18(%edx),%ecx
 804a222:	89 48 18             	mov    %ecx,0x18(%eax)
 804a225:	8b 4a 1c             	mov    0x1c(%edx),%ecx
 804a228:	89 48 1c             	mov    %ecx,0x1c(%eax)
 804a22b:	8b 4a 20             	mov    0x20(%edx),%ecx
 804a22e:	89 48 20             	mov    %ecx,0x20(%eax)
 804a231:	0f b7 52 24          	movzwl 0x24(%edx),%edx
 804a235:	66 89 50 24          	mov    %dx,0x24(%eax)
 804a239:	b8 ff ff ff ff       	mov    $0xffffffff,%eax
 804a23e:	e9 17 01 00 00       	jmp    804a35a <init_driver+0x1eb>
 804a243:	8b 45 d4             	mov    -0x2c(%ebp),%eax
 804a246:	89 04 24             	mov    %eax,(%esp)
 804a249:	e8 c2 e7 ff ff       	call   8048a10 <gethostbyname@plt>
 804a24e:	89 45 e0             	mov    %eax,-0x20(%ebp)
 804a251:	83 7d e0 00          	cmpl   $0x0,-0x20(%ebp)
 804a255:	75 30                	jne    804a287 <init_driver+0x118>
 804a257:	b8 98 ab 04 08       	mov    $0x804ab98,%eax
 804a25c:	8b 55 d4             	mov    -0x2c(%ebp),%edx
 804a25f:	89 54 24 08          	mov    %edx,0x8(%esp)
 804a263:	89 44 24 04          	mov    %eax,0x4(%esp)
 804a267:	8b 45 c4             	mov    -0x3c(%ebp),%eax
 804a26a:	89 04 24             	mov    %eax,(%esp)
 804a26d:	e8 6e e7 ff ff       	call   80489e0 <sprintf@plt>
 804a272:	8b 45 dc             	mov    -0x24(%ebp),%eax
 804a275:	89 04 24             	mov    %eax,(%esp)
 804a278:	e8 b3 e7 ff ff       	call   8048a30 <close@plt>
 804a27d:	b8 ff ff ff ff       	mov    $0xffffffff,%eax
 804a282:	e9 d3 00 00 00       	jmp    804a35a <init_driver+0x1eb>
 804a287:	8d 45 e4             	lea    -0x1c(%ebp),%eax
 804a28a:	c7 00 00 00 00 00    	movl   $0x0,(%eax)
 804a290:	c7 40 04 00 00 00 00 	movl   $0x0,0x4(%eax)
 804a297:	c7 40 08 00 00 00 00 	movl   $0x0,0x8(%eax)
 804a29e:	c7 40 0c 00 00 00 00 	movl   $0x0,0xc(%eax)
 804a2a5:	66 c7 45 e4 02 00    	movw   $0x2,-0x1c(%ebp)
 804a2ab:	8b 45 e0             	mov    -0x20(%ebp),%eax
 804a2ae:	8b 40 0c             	mov    0xc(%eax),%eax
 804a2b1:	89 c2                	mov    %eax,%edx
 804a2b3:	8b 45 e0             	mov    -0x20(%ebp),%eax
 804a2b6:	8b 40 10             	mov    0x10(%eax),%eax
 804a2b9:	8b 00                	mov    (%eax),%eax
 804a2bb:	89 54 24 08          	mov    %edx,0x8(%esp)
 804a2bf:	8d 55 e4             	lea    -0x1c(%ebp),%edx
 804a2c2:	83 c2 04             	add    $0x4,%edx
 804a2c5:	89 54 24 04          	mov    %edx,0x4(%esp)
 804a2c9:	89 04 24             	mov    %eax,(%esp)
 804a2cc:	e8 ef e5 ff ff       	call   80488c0 <bcopy@plt>
 804a2d1:	8b 45 d8             	mov    -0x28(%ebp),%eax
 804a2d4:	0f b7 c0             	movzwl %ax,%eax
 804a2d7:	89 04 24             	mov    %eax,(%esp)
 804a2da:	e8 c1 e5 ff ff       	call   80488a0 <htons@plt>
 804a2df:	66 89 45 e6          	mov    %ax,-0x1a(%ebp)
 804a2e3:	c7 44 24 08 10 00 00 	movl   $0x10,0x8(%esp)
 804a2ea:	00 
 804a2eb:	8d 45 e4             	lea    -0x1c(%ebp),%eax
 804a2ee:	89 44 24 04          	mov    %eax,0x4(%esp)
 804a2f2:	8b 45 dc             	mov    -0x24(%ebp),%eax
 804a2f5:	89 04 24             	mov    %eax,(%esp)
 804a2f8:	e8 23 e7 ff ff       	call   8048a20 <connect@plt>
 804a2fd:	85 c0                	test   %eax,%eax
 804a2ff:	79 34                	jns    804a335 <init_driver+0x1c6>
 804a301:	b8 e0 ad 04 08       	mov    $0x804ade0,%eax
 804a306:	8b 55 d8             	mov    -0x28(%ebp),%edx
 804a309:	89 54 24 0c          	mov    %edx,0xc(%esp)
 804a30d:	8b 55 d4             	mov    -0x2c(%ebp),%edx
 804a310:	89 54 24 08          	mov    %edx,0x8(%esp)
 804a314:	89 44 24 04          	mov    %eax,0x4(%esp)
 804a318:	8b 45 c4             	mov    -0x3c(%ebp),%eax
 804a31b:	89 04 24             	mov    %eax,(%esp)
 804a31e:	e8 bd e6 ff ff       	call   80489e0 <sprintf@plt>
 804a323:	8b 45 dc             	mov    -0x24(%ebp),%eax
 804a326:	89 04 24             	mov    %eax,(%esp)
 804a329:	e8 02 e7 ff ff       	call   8048a30 <close@plt>
 804a32e:	b8 ff ff ff ff       	mov    $0xffffffff,%eax
 804a333:	eb 25                	jmp    804a35a <init_driver+0x1eb>
 804a335:	8b 45 dc             	mov    -0x24(%ebp),%eax
 804a338:	89 04 24             	mov    %eax,(%esp)
 804a33b:	e8 f0 e6 ff ff       	call   8048a30 <close@plt>
 804a340:	ba c4 ad 04 08       	mov    $0x804adc4,%edx
 804a345:	8b 45 c4             	mov    -0x3c(%ebp),%eax
 804a348:	0f b7 0a             	movzwl (%edx),%ecx
 804a34b:	66 89 08             	mov    %cx,(%eax)
 804a34e:	0f b6 52 02          	movzbl 0x2(%edx),%edx
 804a352:	88 50 02             	mov    %dl,0x2(%eax)
 804a355:	b8 00 00 00 00       	mov    $0x0,%eax
 804a35a:	8b 55 f4             	mov    -0xc(%ebp),%edx
 804a35d:	65 33 15 14 00 00 00 	xor    %gs:0x14,%edx
 804a364:	74 05                	je     804a36b <init_driver+0x1fc>
 804a366:	e8 15 e5 ff ff       	call   8048880 <__stack_chk_fail@plt>
 804a36b:	c9                   	leave  
 804a36c:	c3                   	ret    

0804a36d <driver_post>:
 804a36d:	55                   	push   %ebp
 804a36e:	89 e5                	mov    %esp,%ebp
 804a370:	83 ec 38             	sub    $0x38,%esp
 804a373:	83 7d 10 00          	cmpl   $0x0,0x10(%ebp)
 804a377:	74 30                	je     804a3a9 <driver_post+0x3c>
 804a379:	b8 09 ae 04 08       	mov    $0x804ae09,%eax
 804a37e:	8b 55 0c             	mov    0xc(%ebp),%edx
 804a381:	89 54 24 04          	mov    %edx,0x4(%esp)
 804a385:	89 04 24             	mov    %eax,(%esp)
 804a388:	e8 a3 e4 ff ff       	call   8048830 <printf@plt>
 804a38d:	ba c4 ad 04 08       	mov    $0x804adc4,%edx
 804a392:	8b 45 14             	mov    0x14(%ebp),%eax
 804a395:	0f b7 0a             	movzwl (%edx),%ecx
 804a398:	66 89 08             	mov    %cx,(%eax)
 804a39b:	0f b6 52 02          	movzbl 0x2(%edx),%edx
 804a39f:	88 50 02             	mov    %dl,0x2(%eax)
 804a3a2:	b8 00 00 00 00       	mov    $0x0,%eax
 804a3a7:	eb 6b                	jmp    804a414 <driver_post+0xa7>
 804a3a9:	83 7d 08 00          	cmpl   $0x0,0x8(%ebp)
 804a3ad:	74 4b                	je     804a3fa <driver_post+0x8d>
 804a3af:	8b 45 08             	mov    0x8(%ebp),%eax
 804a3b2:	0f b6 00             	movzbl (%eax),%eax
 804a3b5:	84 c0                	test   %al,%al
 804a3b7:	74 41                	je     804a3fa <driver_post+0x8d>
 804a3b9:	8b 45 14             	mov    0x14(%ebp),%eax
 804a3bc:	89 44 24 18          	mov    %eax,0x18(%esp)
 804a3c0:	8b 45 0c             	mov    0xc(%ebp),%eax
 804a3c3:	89 44 24 14          	mov    %eax,0x14(%esp)
 804a3c7:	c7 44 24 10 20 ae 04 	movl   $0x804ae20,0x10(%esp)
 804a3ce:	08 
 804a3cf:	8b 45 08             	mov    0x8(%ebp),%eax
 804a3d2:	89 44 24 0c          	mov    %eax,0xc(%esp)
 804a3d6:	c7 44 24 08 27 ae 04 	movl   $0x804ae27,0x8(%esp)
 804a3dd:	08 
 804a3de:	c7 44 24 04 26 47 00 	movl   $0x4726,0x4(%esp)
 804a3e5:	00 
 804a3e6:	c7 04 24 c7 ad 04 08 	movl   $0x804adc7,(%esp)
 804a3ed:	e8 5a f5 ff ff       	call   804994c <submitr>
 804a3f2:	89 45 f4             	mov    %eax,-0xc(%ebp)
 804a3f5:	8b 45 f4             	mov    -0xc(%ebp),%eax
 804a3f8:	eb 1a                	jmp    804a414 <driver_post+0xa7>
 804a3fa:	ba c4 ad 04 08       	mov    $0x804adc4,%edx
 804a3ff:	8b 45 14             	mov    0x14(%ebp),%eax
 804a402:	0f b7 0a             	movzwl (%edx),%ecx
 804a405:	66 89 08             	mov    %cx,(%eax)
 804a408:	0f b6 52 02          	movzbl 0x2(%edx),%edx
 804a40c:	88 50 02             	mov    %dl,0x2(%eax)
 804a40f:	b8 00 00 00 00       	mov    $0x0,%eax
 804a414:	c9                   	leave  
 804a415:	c3                   	ret    
 804a416:	90                   	nop
 804a417:	90                   	nop

0804a418 <hash>:
 804a418:	55                   	push   %ebp
 804a419:	89 e5                	mov    %esp,%ebp
 804a41b:	83 ec 10             	sub    $0x10,%esp
 804a41e:	c7 45 fc 00 00 00 00 	movl   $0x0,-0x4(%ebp)
 804a425:	eb 18                	jmp    804a43f <hash+0x27>
 804a427:	8b 45 fc             	mov    -0x4(%ebp),%eax
 804a42a:	6b d0 67             	imul   $0x67,%eax,%edx
 804a42d:	8b 45 08             	mov    0x8(%ebp),%eax
 804a430:	0f b6 00             	movzbl (%eax),%eax
 804a433:	0f be c0             	movsbl %al,%eax
 804a436:	01 d0                	add    %edx,%eax
 804a438:	89 45 fc             	mov    %eax,-0x4(%ebp)
 804a43b:	83 45 08 01          	addl   $0x1,0x8(%ebp)
 804a43f:	8b 45 08             	mov    0x8(%ebp),%eax
 804a442:	0f b6 00             	movzbl (%eax),%eax
 804a445:	84 c0                	test   %al,%al
 804a447:	75 de                	jne    804a427 <hash+0xf>
 804a449:	8b 45 fc             	mov    -0x4(%ebp),%eax
 804a44c:	c9                   	leave  
 804a44d:	c3                   	ret    

0804a44e <check>:
 804a44e:	55                   	push   %ebp
 804a44f:	89 e5                	mov    %esp,%ebp
 804a451:	53                   	push   %ebx
 804a452:	83 ec 10             	sub    $0x10,%esp
 804a455:	8b 45 08             	mov    0x8(%ebp),%eax
 804a458:	c1 e8 1c             	shr    $0x1c,%eax
 804a45b:	85 c0                	test   %eax,%eax
 804a45d:	75 07                	jne    804a466 <check+0x18>
 804a45f:	b8 00 00 00 00       	mov    $0x0,%eax
 804a464:	eb 37                	jmp    804a49d <check+0x4f>
 804a466:	c7 45 f8 00 00 00 00 	movl   $0x0,-0x8(%ebp)
 804a46d:	eb 23                	jmp    804a492 <check+0x44>
 804a46f:	8b 45 f8             	mov    -0x8(%ebp),%eax
 804a472:	8b 55 08             	mov    0x8(%ebp),%edx
 804a475:	89 d3                	mov    %edx,%ebx
 804a477:	89 c1                	mov    %eax,%ecx
 804a479:	d3 eb                	shr    %cl,%ebx
 804a47b:	89 d8                	mov    %ebx,%eax
 804a47d:	25 ff 00 00 00       	and    $0xff,%eax
 804a482:	83 f8 0a             	cmp    $0xa,%eax
 804a485:	75 07                	jne    804a48e <check+0x40>
 804a487:	b8 00 00 00 00       	mov    $0x0,%eax
 804a48c:	eb 0f                	jmp    804a49d <check+0x4f>
 804a48e:	83 45 f8 08          	addl   $0x8,-0x8(%ebp)
 804a492:	83 7d f8 1f          	cmpl   $0x1f,-0x8(%ebp)
 804a496:	7e d7                	jle    804a46f <check+0x21>
 804a498:	b8 01 00 00 00       	mov    $0x1,%eax
 804a49d:	83 c4 10             	add    $0x10,%esp
 804a4a0:	5b                   	pop    %ebx
 804a4a1:	5d                   	pop    %ebp
 804a4a2:	c3                   	ret    

0804a4a3 <gencookie>:
 804a4a3:	55                   	push   %ebp
 804a4a4:	89 e5                	mov    %esp,%ebp
 804a4a6:	83 ec 28             	sub    $0x28,%esp
 804a4a9:	8b 45 08             	mov    0x8(%ebp),%eax
 804a4ac:	89 04 24             	mov    %eax,(%esp)
 804a4af:	e8 64 ff ff ff       	call   804a418 <hash>
 804a4b4:	89 04 24             	mov    %eax,(%esp)
 804a4b7:	e8 74 e4 ff ff       	call   8048930 <srand@plt>
 804a4bc:	e8 ff e4 ff ff       	call   80489c0 <rand@plt>
 804a4c1:	89 45 f4             	mov    %eax,-0xc(%ebp)
 804a4c4:	8b 45 f4             	mov    -0xc(%ebp),%eax
 804a4c7:	89 04 24             	mov    %eax,(%esp)
 804a4ca:	e8 7f ff ff ff       	call   804a44e <check>
 804a4cf:	85 c0                	test   %eax,%eax
 804a4d1:	74 e9                	je     804a4bc <gencookie+0x19>
 804a4d3:	8b 45 f4             	mov    -0xc(%ebp),%eax
 804a4d6:	c9                   	leave  
 804a4d7:	c3                   	ret    
 804a4d8:	90                   	nop
 804a4d9:	90                   	nop
 804a4da:	90                   	nop
 804a4db:	90                   	nop
 804a4dc:	90                   	nop
 804a4dd:	90                   	nop
 804a4de:	90                   	nop
 804a4df:	90                   	nop

0804a4e0 <__libc_csu_init>:
 804a4e0:	55                   	push   %ebp
 804a4e1:	57                   	push   %edi
 804a4e2:	56                   	push   %esi
 804a4e3:	53                   	push   %ebx
 804a4e4:	e8 69 00 00 00       	call   804a552 <__i686.get_pc_thunk.bx>
 804a4e9:	81 c3 0b 2b 00 00    	add    $0x2b0b,%ebx
 804a4ef:	83 ec 1c             	sub    $0x1c,%esp
 804a4f2:	8b 6c 24 30          	mov    0x30(%esp),%ebp
 804a4f6:	8d bb 20 ff ff ff    	lea    -0xe0(%ebx),%edi
 804a4fc:	e8 c3 e2 ff ff       	call   80487c4 <_init>
 804a501:	8d 83 20 ff ff ff    	lea    -0xe0(%ebx),%eax
 804a507:	29 c7                	sub    %eax,%edi
 804a509:	c1 ff 02             	sar    $0x2,%edi
 804a50c:	85 ff                	test   %edi,%edi
 804a50e:	74 29                	je     804a539 <__libc_csu_init+0x59>
 804a510:	31 f6                	xor    %esi,%esi
 804a512:	8d b6 00 00 00 00    	lea    0x0(%esi),%esi
 804a518:	8b 44 24 38          	mov    0x38(%esp),%eax
 804a51c:	89 2c 24             	mov    %ebp,(%esp)
 804a51f:	89 44 24 08          	mov    %eax,0x8(%esp)
 804a523:	8b 44 24 34          	mov    0x34(%esp),%eax
 804a527:	89 44 24 04          	mov    %eax,0x4(%esp)
 804a52b:	ff 94 b3 20 ff ff ff 	call   *-0xe0(%ebx,%esi,4)
 804a532:	83 c6 01             	add    $0x1,%esi
 804a535:	39 fe                	cmp    %edi,%esi
 804a537:	75 df                	jne    804a518 <__libc_csu_init+0x38>
 804a539:	83 c4 1c             	add    $0x1c,%esp
 804a53c:	5b                   	pop    %ebx
 804a53d:	5e                   	pop    %esi
 804a53e:	5f                   	pop    %edi
 804a53f:	5d                   	pop    %ebp
 804a540:	c3                   	ret    
 804a541:	eb 0d                	jmp    804a550 <__libc_csu_fini>
 804a543:	90                   	nop
 804a544:	90                   	nop
 804a545:	90                   	nop
 804a546:	90                   	nop
 804a547:	90                   	nop
 804a548:	90                   	nop
 804a549:	90                   	nop
 804a54a:	90                   	nop
 804a54b:	90                   	nop
 804a54c:	90                   	nop
 804a54d:	90                   	nop
 804a54e:	90                   	nop
 804a54f:	90                   	nop

0804a550 <__libc_csu_fini>:
 804a550:	f3 c3                	repz ret 

0804a552 <__i686.get_pc_thunk.bx>:
 804a552:	8b 1c 24             	mov    (%esp),%ebx
 804a555:	c3                   	ret    
 804a556:	90                   	nop
 804a557:	90                   	nop
 804a558:	90                   	nop
 804a559:	90                   	nop
 804a55a:	90                   	nop
 804a55b:	90                   	nop
 804a55c:	90                   	nop
 804a55d:	90                   	nop
 804a55e:	90                   	nop
 804a55f:	90                   	nop

0804a560 <__do_global_ctors_aux>:
 804a560:	55                   	push   %ebp
 804a561:	89 e5                	mov    %esp,%ebp
 804a563:	53                   	push   %ebx
 804a564:	83 ec 04             	sub    $0x4,%esp
 804a567:	a1 14 cf 04 08       	mov    0x804cf14,%eax
 804a56c:	83 f8 ff             	cmp    $0xffffffff,%eax
 804a56f:	74 13                	je     804a584 <__do_global_ctors_aux+0x24>
 804a571:	bb 14 cf 04 08       	mov    $0x804cf14,%ebx
 804a576:	66 90                	xchg   %ax,%ax
 804a578:	83 eb 04             	sub    $0x4,%ebx
 804a57b:	ff d0                	call   *%eax
 804a57d:	8b 03                	mov    (%ebx),%eax
 804a57f:	83 f8 ff             	cmp    $0xffffffff,%eax
 804a582:	75 f4                	jne    804a578 <__do_global_ctors_aux+0x18>
 804a584:	83 c4 04             	add    $0x4,%esp
 804a587:	5b                   	pop    %ebx
 804a588:	5d                   	pop    %ebp
 804a589:	c3                   	ret    
 804a58a:	90                   	nop
 804a58b:	90                   	nop

Disassembly of section .fini:

0804a58c <_fini>:
 804a58c:	53                   	push   %ebx
 804a58d:	83 ec 08             	sub    $0x8,%esp
 804a590:	e8 00 00 00 00       	call   804a595 <_fini+0x9>
 804a595:	5b                   	pop    %ebx
 804a596:	81 c3 5f 2a 00 00    	add    $0x2a5f,%ebx
 804a59c:	e8 df e4 ff ff       	call   8048a80 <__do_global_dtors_aux>
 804a5a1:	83 c4 08             	add    $0x8,%esp
 804a5a4:	5b                   	pop    %ebx
 804a5a5:	c3                   	ret    

Disassembly of section .rodata:

0804a5a8 <_fp_hw>:
 804a5a8:	03 00                	add    (%eax),%eax
	...

0804a5ac <_IO_stdin_used>:
 804a5ac:	01 00                	add    %eax,(%eax)
 804a5ae:	02 00                	add    (%eax),%al
 804a5b0:	53                   	push   %ebx
 804a5b1:	6d                   	insl   (%dx),%es:(%edi)
 804a5b2:	6f                   	outsl  %ds:(%esi),(%dx)
 804a5b3:	6b 65 21 3a          	imul   $0x3a,0x21(%ebp),%esp
 804a5b7:	20 59 6f             	and    %bl,0x6f(%ecx)
 804a5ba:	75 20                	jne    804a5dc <_IO_stdin_used+0x30>
 804a5bc:	63 61 6c             	arpl   %sp,0x6c(%ecx)
 804a5bf:	6c                   	insb   (%dx),%es:(%edi)
 804a5c0:	65 64 20 73 6d       	gs and %dh,%fs:%gs:0x6d(%ebx)
 804a5c5:	6f                   	outsl  %ds:(%esi),(%dx)
 804a5c6:	6b 65 28 29          	imul   $0x29,0x28(%ebp),%esp
 804a5ca:	00 46 69             	add    %al,0x69(%esi)
 804a5cd:	7a 7a                	jp     804a649 <_IO_stdin_used+0x9d>
 804a5cf:	21 3a                	and    %edi,(%edx)
 804a5d1:	20 59 6f             	and    %bl,0x6f(%ecx)
 804a5d4:	75 20                	jne    804a5f6 <_IO_stdin_used+0x4a>
 804a5d6:	63 61 6c             	arpl   %sp,0x6c(%ecx)
 804a5d9:	6c                   	insb   (%dx),%es:(%edi)
 804a5da:	65 64 20 66 69       	gs and %ah,%fs:%gs:0x69(%esi)
 804a5df:	7a 7a                	jp     804a65b <_IO_stdin_used+0xaf>
 804a5e1:	28 30                	sub    %dh,(%eax)
 804a5e3:	78 25                	js     804a60a <_IO_stdin_used+0x5e>
 804a5e5:	78 29                	js     804a610 <_IO_stdin_used+0x64>
 804a5e7:	0a 00                	or     (%eax),%al
 804a5e9:	00 00                	add    %al,(%eax)
 804a5eb:	00 4d 69             	add    %cl,0x69(%ebp)
 804a5ee:	73 66                	jae    804a656 <_IO_stdin_used+0xaa>
 804a5f0:	69 72 65 3a 20 59 6f 	imul   $0x6f59203a,0x65(%edx),%esi
 804a5f7:	75 20                	jne    804a619 <_IO_stdin_used+0x6d>
 804a5f9:	63 61 6c             	arpl   %sp,0x6c(%ecx)
 804a5fc:	6c                   	insb   (%dx),%es:(%edi)
 804a5fd:	65 64 20 66 69       	gs and %ah,%fs:%gs:0x69(%esi)
 804a602:	7a 7a                	jp     804a67e <_IO_stdin_used+0xd2>
 804a604:	28 30                	sub    %dh,(%eax)
 804a606:	78 25                	js     804a62d <_IO_stdin_used+0x81>
 804a608:	78 29                	js     804a633 <_IO_stdin_used+0x87>
 804a60a:	0a 00                	or     (%eax),%al
 804a60c:	42                   	inc    %edx
 804a60d:	61                   	popa   
 804a60e:	6e                   	outsb  %ds:(%esi),(%dx)
 804a60f:	67 21 3a             	and    %edi,(%bp,%si)
 804a612:	20 59 6f             	and    %bl,0x6f(%ecx)
 804a615:	75 20                	jne    804a637 <_IO_stdin_used+0x8b>
 804a617:	73 65                	jae    804a67e <_IO_stdin_used+0xd2>
 804a619:	74 20                	je     804a63b <_IO_stdin_used+0x8f>
 804a61b:	67 6c                	insb   (%dx),%es:(%di)
 804a61d:	6f                   	outsl  %ds:(%esi),(%dx)
 804a61e:	62 61 6c             	bound  %esp,0x6c(%ecx)
 804a621:	5f                   	pop    %edi
 804a622:	76 61                	jbe    804a685 <_IO_stdin_used+0xd9>
 804a624:	6c                   	insb   (%dx),%es:(%edi)
 804a625:	75 65                	jne    804a68c <_IO_stdin_used+0xe0>
 804a627:	20 74 6f 20          	and    %dh,0x20(%edi,%ebp,2)
 804a62b:	30 78 25             	xor    %bh,0x25(%eax)
 804a62e:	78 0a                	js     804a63a <_IO_stdin_used+0x8e>
 804a630:	00 4d 69             	add    %cl,0x69(%ebp)
 804a633:	73 66                	jae    804a69b <_IO_stdin_used+0xef>
 804a635:	69 72 65 3a 20 67 6c 	imul   $0x6c67203a,0x65(%edx),%esi
 804a63c:	6f                   	outsl  %ds:(%esi),(%dx)
 804a63d:	62 61 6c             	bound  %esp,0x6c(%ecx)
 804a640:	5f                   	pop    %edi
 804a641:	76 61                	jbe    804a6a4 <_IO_stdin_used+0xf8>
 804a643:	6c                   	insb   (%dx),%es:(%edi)
 804a644:	75 65                	jne    804a6ab <_IO_stdin_used+0xff>
 804a646:	20 3d 20 30 78 25    	and    %bh,0x25783020
 804a64c:	78 0a                	js     804a658 <_IO_stdin_used+0xac>
 804a64e:	00 00                	add    %al,(%eax)
 804a650:	53                   	push   %ebx
 804a651:	61                   	popa   
 804a652:	62 6f 74             	bound  %ebp,0x74(%edi)
 804a655:	61                   	popa   
 804a656:	67 65 64 21 3a       	gs and %edi,%fs:%gs:(%bp,%si)
 804a65b:	20 74 68 65          	and    %dh,0x65(%eax,%ebp,2)
 804a65f:	20 73 74             	and    %dh,0x74(%ebx)
 804a662:	61                   	popa   
 804a663:	63 6b 20             	arpl   %bp,0x20(%ebx)
 804a666:	68 61 73 20 62       	push   $0x62207361
 804a66b:	65 65 6e             	gs outsb %gs:(%esi),(%dx)
 804a66e:	20 63 6f             	and    %ah,0x6f(%ebx)
 804a671:	72 72                	jb     804a6e5 <_IO_stdin_used+0x139>
 804a673:	75 70                	jne    804a6e5 <_IO_stdin_used+0x139>
 804a675:	74 65                	je     804a6dc <_IO_stdin_used+0x130>
 804a677:	64 00 42 6f          	add    %al,%fs:0x6f(%edx)
 804a67b:	6f                   	outsl  %ds:(%esi),(%dx)
 804a67c:	6d                   	insl   (%dx),%es:(%edi)
 804a67d:	21 3a                	and    %edi,(%edx)
 804a67f:	20 67 65             	and    %ah,0x65(%edi)
 804a682:	74 62                	je     804a6e6 <_IO_stdin_used+0x13a>
 804a684:	75 66                	jne    804a6ec <_IO_stdin_used+0x140>
 804a686:	20 72 65             	and    %dh,0x65(%edx)
 804a689:	74 75                	je     804a700 <_IO_stdin_used+0x154>
 804a68b:	72 6e                	jb     804a6fb <_IO_stdin_used+0x14f>
 804a68d:	65 64 20 30          	gs and %dh,%fs:%gs:(%eax)
 804a691:	78 25                	js     804a6b8 <_IO_stdin_used+0x10c>
 804a693:	78 0a                	js     804a69f <_IO_stdin_used+0xf3>
 804a695:	00 44 75 64          	add    %al,0x64(%ebp,%esi,2)
 804a699:	3a 20                	cmp    (%eax),%ah
 804a69b:	67                   	addr16
 804a69c:	65                   	gs
 804a69d:	74 62                	je     804a701 <_IO_stdin_used+0x155>
 804a69f:	75 66                	jne    804a707 <_IO_stdin_used+0x15b>
 804a6a1:	20 72 65             	and    %dh,0x65(%edx)
 804a6a4:	74 75                	je     804a71b <_IO_stdin_used+0x16f>
 804a6a6:	72 6e                	jb     804a716 <_IO_stdin_used+0x16a>
 804a6a8:	65 64 20 30          	gs and %dh,%fs:%gs:(%eax)
 804a6ac:	78 25                	js     804a6d3 <_IO_stdin_used+0x127>
 804a6ae:	78 0a                	js     804a6ba <_IO_stdin_used+0x10e>
 804a6b0:	00 00                	add    %al,(%eax)
 804a6b2:	00 00                	add    %al,(%eax)
 804a6b4:	4b                   	dec    %ebx
 804a6b5:	41                   	inc    %ecx
 804a6b6:	42                   	inc    %edx
 804a6b7:	4f                   	dec    %edi
 804a6b8:	4f                   	dec    %edi
 804a6b9:	4d                   	dec    %ebp
 804a6ba:	21 3a                	and    %edi,(%edx)
 804a6bc:	20 67 65             	and    %ah,0x65(%edi)
 804a6bf:	74 62                	je     804a723 <_IO_stdin_used+0x177>
 804a6c1:	75 66                	jne    804a729 <_IO_stdin_used+0x17d>
 804a6c3:	6e                   	outsb  %ds:(%esi),(%dx)
 804a6c4:	20 72 65             	and    %dh,0x65(%edx)
 804a6c7:	74 75                	je     804a73e <_IO_stdin_used+0x192>
 804a6c9:	72 6e                	jb     804a739 <_IO_stdin_used+0x18d>
 804a6cb:	65 64 20 30          	gs and %dh,%fs:%gs:(%eax)
 804a6cf:	78 25                	js     804a6f6 <_IO_stdin_used+0x14a>
 804a6d1:	78 0a                	js     804a6dd <_IO_stdin_used+0x131>
 804a6d3:	00 44 75 64          	add    %al,0x64(%ebp,%esi,2)
 804a6d7:	3a 20                	cmp    (%eax),%ah
 804a6d9:	67                   	addr16
 804a6da:	65                   	gs
 804a6db:	74 62                	je     804a73f <_IO_stdin_used+0x193>
 804a6dd:	75 66                	jne    804a745 <_IO_stdin_used+0x199>
 804a6df:	6e                   	outsb  %ds:(%esi),(%dx)
 804a6e0:	20 72 65             	and    %dh,0x65(%edx)
 804a6e3:	74 75                	je     804a75a <_IO_stdin_used+0x1ae>
 804a6e5:	72 6e                	jb     804a755 <_IO_stdin_used+0x1a9>
 804a6e7:	65 64 20 30          	gs and %dh,%fs:%gs:(%eax)
 804a6eb:	78 25                	js     804a712 <_IO_stdin_used+0x166>
 804a6ed:	78 0a                	js     804a6f9 <_IO_stdin_used+0x14d>
 804a6ef:	00 55 73             	add    %dl,0x73(%ebp)
 804a6f2:	61                   	popa   
 804a6f3:	67 65 3a 20          	cmp    %gs:(%bx,%si),%ah
 804a6f7:	25 73 20 2d 75       	and    $0x752d2073,%eax
 804a6fc:	20 3c 75 73 65 72 69 	and    %bh,0x69726573(,%esi,2)
 804a703:	64 3e 20 5b 2d       	fs and %bl,%ds:%fs:0x2d(%ebx)
 804a708:	6e                   	outsb  %ds:(%esi),(%dx)
 804a709:	73 68                	jae    804a773 <_IO_stdin_used+0x1c7>
 804a70b:	5d                   	pop    %ebp
 804a70c:	0a 00                	or     (%eax),%al
 804a70e:	20 20                	and    %ah,(%eax)
 804a710:	2d 75 20 3c 75       	sub    $0x753c2075,%eax
 804a715:	73 65                	jae    804a77c <_IO_stdin_used+0x1d0>
 804a717:	72 69                	jb     804a782 <_IO_stdin_used+0x1d6>
 804a719:	64 3e 20 55 73       	fs and %dl,%ds:%fs:0x73(%ebp)
 804a71e:	65                   	gs
 804a71f:	72 20                	jb     804a741 <_IO_stdin_used+0x195>
 804a721:	49                   	dec    %ecx
 804a722:	44                   	inc    %esp
 804a723:	00 20                	add    %ah,(%eax)
 804a725:	20 2d 6e 20 20 20    	and    %ch,0x2020206e
 804a72b:	20 20                	and    %ah,(%eax)
 804a72d:	20 20                	and    %ah,(%eax)
 804a72f:	20 20                	and    %ah,(%eax)
 804a731:	20 4e 69             	and    %cl,0x69(%esi)
 804a734:	74 72                	je     804a7a8 <_IO_stdin_used+0x1fc>
 804a736:	6f                   	outsl  %ds:(%esi),(%dx)
 804a737:	20 6d 6f             	and    %ch,0x6f(%ebp)
 804a73a:	64 65 00 00          	fs add %al,%fs:%gs:(%eax)
 804a73e:	00 00                	add    %al,(%eax)
 804a740:	20 20                	and    %ah,(%eax)
 804a742:	2d 73 20 20 20       	sub    $0x20202073,%eax
 804a747:	20 20                	and    %ah,(%eax)
 804a749:	20 20                	and    %ah,(%eax)
 804a74b:	20 20                	and    %ah,(%eax)
 804a74d:	20 53 75             	and    %dl,0x75(%ebx)
 804a750:	62 6d 69             	bound  %ebp,0x69(%ebp)
 804a753:	74 20                	je     804a775 <_IO_stdin_used+0x1c9>
 804a755:	79 6f                	jns    804a7c6 <_IO_stdin_used+0x21a>
 804a757:	75 72                	jne    804a7cb <_IO_stdin_used+0x21f>
 804a759:	20 73 6f             	and    %dh,0x6f(%ebx)
 804a75c:	6c                   	insb   (%dx),%es:(%edi)
 804a75d:	75 74                	jne    804a7d3 <_IO_stdin_used+0x227>
 804a75f:	69 6f 6e 20 74 6f 20 	imul   $0x206f7420,0x6e(%edi),%ebp
 804a766:	74 68                	je     804a7d0 <_IO_stdin_used+0x224>
 804a768:	65 20 67 72          	and    %ah,%gs:0x72(%edi)
 804a76c:	61                   	popa   
 804a76d:	64 69 6e 67 20 73 65 	imul   $0x72657320,%fs:0x67(%esi),%ebp
 804a774:	72 
 804a775:	76 65                	jbe    804a7dc <_IO_stdin_used+0x230>
 804a777:	72 00                	jb     804a779 <_IO_stdin_used+0x1cd>
 804a779:	00 00                	add    %al,(%eax)
 804a77b:	00 20                	add    %ah,(%eax)
 804a77d:	20 2d 68 20 20 20    	and    %ch,0x20202068
 804a783:	20 20                	and    %ah,(%eax)
 804a785:	20 20                	and    %ah,(%eax)
 804a787:	20 20                	and    %ah,(%eax)
 804a789:	20 50 72             	and    %dl,0x72(%eax)
 804a78c:	69 6e 74 20 68 65 6c 	imul   $0x6c656820,0x74(%esi),%ebp
 804a793:	70 20                	jo     804a7b5 <_IO_stdin_used+0x209>
 804a795:	69 6e 66 6f 72 6d 61 	imul   $0x616d726f,0x66(%esi),%ebp
 804a79c:	74 69                	je     804a807 <_IO_stdin_used+0x25b>
 804a79e:	6f                   	outsl  %ds:(%esi),(%dx)
 804a79f:	6e                   	outsb  %ds:(%esi),(%dx)
 804a7a0:	00 00                	add    %al,(%eax)
 804a7a2:	00 00                	add    %al,(%eax)
 804a7a4:	43                   	inc    %ebx
 804a7a5:	72 61                	jb     804a808 <_IO_stdin_used+0x25c>
 804a7a7:	73 68                	jae    804a811 <_IO_stdin_used+0x265>
 804a7a9:	21 3a                	and    %edi,(%edx)
 804a7ab:	20 59 6f             	and    %bl,0x6f(%ecx)
 804a7ae:	75 20                	jne    804a7d0 <_IO_stdin_used+0x224>
 804a7b0:	63 61 75             	arpl   %sp,0x75(%ecx)
 804a7b3:	73 65                	jae    804a81a <_IO_stdin_used+0x26e>
 804a7b5:	64 20 61 20          	and    %ah,%fs:0x20(%ecx)
 804a7b9:	62 75 73             	bound  %esi,0x73(%ebp)
 804a7bc:	20 65 72             	and    %ah,0x72(%ebp)
 804a7bf:	72 6f                	jb     804a830 <_IO_stdin_used+0x284>
 804a7c1:	72 21                	jb     804a7e4 <_IO_stdin_used+0x238>
 804a7c3:	00 42 65             	add    %al,0x65(%edx)
 804a7c6:	74 74                	je     804a83c <_IO_stdin_used+0x290>
 804a7c8:	65                   	gs
 804a7c9:	72 20                	jb     804a7eb <_IO_stdin_used+0x23f>
 804a7cb:	6c                   	insb   (%dx),%es:(%edi)
 804a7cc:	75 63                	jne    804a831 <_IO_stdin_used+0x285>
 804a7ce:	6b 20 6e             	imul   $0x6e,(%eax),%esp
 804a7d1:	65                   	gs
 804a7d2:	78 74                	js     804a848 <_IO_stdin_used+0x29c>
 804a7d4:	20 74 69 6d          	and    %dh,0x6d(%ecx,%ebp,2)
 804a7d8:	65 00 00             	add    %al,%gs:(%eax)
 804a7db:	00 4f 75             	add    %cl,0x75(%edi)
 804a7de:	63 68 21             	arpl   %bp,0x21(%eax)
 804a7e1:	3a 20                	cmp    (%eax),%ah
 804a7e3:	59                   	pop    %ecx
 804a7e4:	6f                   	outsl  %ds:(%esi),(%dx)
 804a7e5:	75 20                	jne    804a807 <_IO_stdin_used+0x25b>
 804a7e7:	63 61 75             	arpl   %sp,0x75(%ecx)
 804a7ea:	73 65                	jae    804a851 <_IO_stdin_used+0x2a5>
 804a7ec:	64 20 61 20          	and    %ah,%fs:0x20(%ecx)
 804a7f0:	73 65                	jae    804a857 <_IO_stdin_used+0x2ab>
 804a7f2:	67 6d                	insl   (%dx),%es:(%di)
 804a7f4:	65 6e                	outsb  %gs:(%esi),(%dx)
 804a7f6:	74 61                	je     804a859 <_IO_stdin_used+0x2ad>
 804a7f8:	74 69                	je     804a863 <_IO_stdin_used+0x2b7>
 804a7fa:	6f                   	outsl  %ds:(%esi),(%dx)
 804a7fb:	6e                   	outsb  %ds:(%esi),(%dx)
 804a7fc:	20 66 61             	and    %ah,0x61(%esi)
 804a7ff:	75 6c                	jne    804a86d <_IO_stdin_used+0x2c1>
 804a801:	74 21                	je     804a824 <_IO_stdin_used+0x278>
 804a803:	00 4f 6f             	add    %cl,0x6f(%edi)
 804a806:	70 73                	jo     804a87b <_IO_stdin_used+0x2cf>
 804a808:	21 3a                	and    %edi,(%edx)
 804a80a:	20 59 6f             	and    %bl,0x6f(%ecx)
 804a80d:	75 20                	jne    804a82f <_IO_stdin_used+0x283>
 804a80f:	65                   	gs
 804a810:	78 65                	js     804a877 <_IO_stdin_used+0x2cb>
 804a812:	63 75 74             	arpl   %si,0x74(%ebp)
 804a815:	65 64 20 61 6e       	gs and %ah,%fs:%gs:0x6e(%ecx)
 804a81a:	20 69 6c             	and    %ch,0x6c(%ecx)
 804a81d:	6c                   	insb   (%dx),%es:(%edi)
 804a81e:	65                   	gs
 804a81f:	67 61                	addr16 popa 
 804a821:	6c                   	insb   (%dx),%es:(%edi)
 804a822:	20 69 6e             	and    %ch,0x6e(%ecx)
 804a825:	73 74                	jae    804a89b <_IO_stdin_used+0x2ef>
 804a827:	72 75                	jb     804a89e <_IO_stdin_used+0x2f2>
 804a829:	63 74 69 6f          	arpl   %si,0x6f(%ecx,%ebp,2)
 804a82d:	6e                   	outsb  %ds:(%esi),(%dx)
 804a82e:	00 54 79 70          	add    %dl,0x70(%ecx,%edi,2)
 804a832:	65 20 73 74          	and    %dh,%gs:0x74(%ebx)
 804a836:	72 69                	jb     804a8a1 <_IO_stdin_used+0x2f5>
 804a838:	6e                   	outsb  %ds:(%esi),(%dx)
 804a839:	67 3a 00             	cmp    (%bx,%si),%al
 804a83c:	49                   	dec    %ecx
 804a83d:	6e                   	outsb  %ds:(%esi),(%dx)
 804a83e:	74 65                	je     804a8a5 <_IO_stdin_used+0x2f9>
 804a840:	72 6e                	jb     804a8b0 <_IO_stdin_used+0x304>
 804a842:	61                   	popa   
 804a843:	6c                   	insb   (%dx),%es:(%edi)
 804a844:	20 65 72             	and    %ah,0x72(%ebp)
 804a847:	72 6f                	jb     804a8b8 <_IO_stdin_used+0x30c>
 804a849:	72 2e                	jb     804a879 <_IO_stdin_used+0x2cd>
 804a84b:	20 20                	and    %ah,(%eax)
 804a84d:	43                   	inc    %ebx
 804a84e:	6f                   	outsl  %ds:(%esi),(%dx)
 804a84f:	75 6c                	jne    804a8bd <_IO_stdin_used+0x311>
 804a851:	64 6e                	outsb  %fs:(%esi),(%dx)
 804a853:	27                   	daa    
 804a854:	74 20                	je     804a876 <_IO_stdin_used+0x2ca>
 804a856:	75 73                	jne    804a8cb <_IO_stdin_used+0x31f>
 804a858:	65 20 6d 6d          	and    %ch,%gs:0x6d(%ebp)
 804a85c:	61                   	popa   
 804a85d:	70 2e                	jo     804a88d <_IO_stdin_used+0x2e1>
 804a85f:	20 54 72 79          	and    %dl,0x79(%edx,%esi,2)
 804a863:	20 64 69 66          	and    %ah,0x66(%ecx,%ebp,2)
 804a867:	66                   	data16
 804a868:	65                   	gs
 804a869:	72 65                	jb     804a8d0 <_IO_stdin_used+0x324>
 804a86b:	6e                   	outsb  %ds:(%esi),(%dx)
 804a86c:	74 20                	je     804a88e <_IO_stdin_used+0x2e2>
 804a86e:	76 61                	jbe    804a8d1 <_IO_stdin_used+0x325>
 804a870:	6c                   	insb   (%dx),%es:(%edi)
 804a871:	75 65                	jne    804a8d8 <_IO_stdin_used+0x32c>
 804a873:	20 66 6f             	and    %ah,0x6f(%esi)
 804a876:	72 20                	jb     804a898 <_IO_stdin_used+0x2ec>
 804a878:	53                   	push   %ebx
 804a879:	54                   	push   %esp
 804a87a:	41                   	inc    %ecx
 804a87b:	52                   	push   %edx
 804a87c:	54                   	push   %esp
 804a87d:	5f                   	pop    %edi
 804a87e:	41                   	inc    %ecx
 804a87f:	44                   	inc    %esp
 804a880:	44                   	inc    %esp
 804a881:	52                   	push   %edx
 804a882:	0a 00                	or     (%eax),%al
 804a884:	54                   	push   %esp
 804a885:	68 69 73 20 69       	push   $0x69207369
 804a88a:	73 20                	jae    804a8ac <_IO_stdin_used+0x300>
 804a88c:	61                   	popa   
 804a88d:	20 71 75             	and    %dh,0x75(%ecx)
 804a890:	69 65 74 20 62 6f 6d 	imul   $0x6d6f6220,0x74(%ebp),%esp
 804a897:	62 2e                	bound  %ebp,(%esi)
 804a899:	20 49 67             	and    %cl,0x67(%ecx)
 804a89c:	6e                   	outsb  %ds:(%esi),(%dx)
 804a89d:	6f                   	outsl  %ds:(%esi),(%dx)
 804a89e:	72 69                	jb     804a909 <_IO_stdin_used+0x35d>
 804a8a0:	6e                   	outsb  %ds:(%esi),(%dx)
 804a8a1:	67 20 2d             	and    %ch,(%di)
 804a8a4:	73 20                	jae    804a8c6 <_IO_stdin_used+0x31a>
 804a8a6:	66                   	data16
 804a8a7:	6c                   	insb   (%dx),%es:(%edi)
 804a8a8:	61                   	popa   
 804a8a9:	67 2e 00 67 73       	add    %ah,%cs:0x73(%bx)
 804a8ae:	6e                   	outsb  %ds:(%esi),(%dx)
 804a8af:	68 75 3a 00 00       	push   $0x3a75
 804a8b4:	25 73 3a 20 4d       	and    $0x4d203a73,%eax
 804a8b9:	69 73 73 69 6e 67 20 	imul   $0x20676e69,0x73(%ebx),%esi
 804a8c0:	72 65                	jb     804a927 <_IO_stdin_used+0x37b>
 804a8c2:	71 75                	jno    804a939 <_IO_stdin_used+0x38d>
 804a8c4:	69 72 65 64 20 61 72 	imul   $0x72612064,0x65(%edx),%esi
 804a8cb:	67 75 6d             	addr16 jne 804a93b <_IO_stdin_used+0x38f>
 804a8ce:	65 6e                	outsb  %gs:(%esi),(%dx)
 804a8d0:	74 20                	je     804a8f2 <_IO_stdin_used+0x346>
 804a8d2:	28 2d 75 20 3c 75    	sub    %ch,0x753c2075
 804a8d8:	73 65                	jae    804a93f <_IO_stdin_used+0x393>
 804a8da:	72 69                	jb     804a945 <_IO_stdin_used+0x399>
 804a8dc:	64 29 0a             	sub    %ecx,%fs:(%edx)
 804a8df:	00 55 73             	add    %dl,0x73(%ebp)
 804a8e2:	65                   	gs
 804a8e3:	72 69                	jb     804a94e <_IO_stdin_used+0x3a2>
 804a8e5:	64 3a 20             	cmp    %fs:(%eax),%ah
 804a8e8:	25 73 0a 00 43       	and    $0x43000a73,%eax
 804a8ed:	6f                   	outsl  %ds:(%esi),(%dx)
 804a8ee:	6f                   	outsl  %ds:(%esi),(%dx)
 804a8ef:	6b 69 65 3a          	imul   $0x3a,0x65(%ecx),%ebp
 804a8f3:	20 30                	and    %dh,(%eax)
 804a8f5:	78 25                	js     804a91c <_IO_stdin_used+0x370>
 804a8f7:	78 0a                	js     804a903 <_IO_stdin_used+0x357>
 804a8f9:	00 00                	add    %al,(%eax)
 804a8fb:	00 1f                	add    %bl,(%edi)
 804a8fd:	91                   	xchg   %eax,%ecx
 804a8fe:	04 08                	add    $0x8,%al
 804a900:	c0 90 04 08 2b 91 04 	rclb   $0x4,-0x6ed4f7fc(%eax)
 804a907:	08 2b                	or     %ch,(%ebx)
 804a909:	91                   	xchg   %eax,%ecx
 804a90a:	04 08                	add    $0x8,%al
 804a90c:	2b 91 04 08 2b 91    	sub    -0x6ed4f7fc(%ecx),%edx
 804a912:	04 08                	add    $0x8,%al
 804a914:	2b 91 04 08 cf 90    	sub    -0x6f30f7fc(%ecx),%edx
 804a91a:	04 08                	add    $0x8,%al
 804a91c:	2b 91 04 08 2b 91    	sub    -0x6ed4f7fc(%ecx),%edx
 804a922:	04 08                	add    $0x8,%al
 804a924:	2b 91 04 08 2b 91    	sub    -0x6ed4f7fc(%ecx),%edx
 804a92a:	04 08                	add    $0x8,%al
 804a92c:	07                   	pop    %es
 804a92d:	91                   	xchg   %eax,%ecx
 804a92e:	04 08                	add    $0x8,%al
 804a930:	2b 91 04 08 e1 90    	sub    -0x6f1ef7fc(%ecx),%edx
 804a936:	04 08                	add    $0x8,%al
 804a938:	62 6c 75 65          	bound  %ebp,0x65(%ebp,%esi,2)
 804a93c:	66 69 73 68 2e 69    	imul   $0x692e,0x68(%ebx),%si
 804a942:	63 73 2e             	arpl   %si,0x2e(%ebx)
 804a945:	63 73 2e             	arpl   %si,0x2e(%ebx)
 804a948:	63 6d 75             	arpl   %bp,0x75(%ebp)
 804a94b:	2e                   	cs
 804a94c:	65                   	gs
 804a94d:	64                   	fs
 804a94e:	75 00                	jne    804a950 <_IO_stdin_used+0x3a4>
 804a950:	61                   	popa   
 804a951:	6e                   	outsb  %ds:(%esi),(%dx)
 804a952:	67                   	addr16
 804a953:	65                   	gs
 804a954:	6c                   	insb   (%dx),%es:(%edi)
 804a955:	73 68                	jae    804a9bf <_IO_stdin_used+0x413>
 804a957:	61                   	popa   
 804a958:	72 6b                	jb     804a9c5 <_IO_stdin_used+0x419>
 804a95a:	2e 69 63 73 2e 63 73 	imul   $0x2e73632e,%cs:0x73(%ebx),%esp
 804a961:	2e 
 804a962:	63 6d 75             	arpl   %bp,0x75(%ebp)
 804a965:	2e                   	cs
 804a966:	65                   	gs
 804a967:	64                   	fs
 804a968:	75 00                	jne    804a96a <_IO_stdin_used+0x3be>
 804a96a:	67 72 65             	addr16 jb 804a9d2 <_IO_stdin_used+0x426>
 804a96d:	61                   	popa   
 804a96e:	74 77                	je     804a9e7 <_IO_stdin_used+0x43b>
 804a970:	68 69 74 65 2e       	push   $0x2e657469
 804a975:	69 63 73 2e 63 73 2e 	imul   $0x2e73632e,0x73(%ebx),%esp
 804a97c:	63 6d 75             	arpl   %bp,0x75(%ebp)
 804a97f:	2e                   	cs
 804a980:	65                   	gs
 804a981:	64                   	fs
 804a982:	75 00                	jne    804a984 <_IO_stdin_used+0x3d8>
 804a984:	6d                   	insl   (%dx),%es:(%edi)
 804a985:	61                   	popa   
 804a986:	6b 6f 73 68          	imul   $0x68,0x73(%edi),%ebp
 804a98a:	61                   	popa   
 804a98b:	72 6b                	jb     804a9f8 <_IO_stdin_used+0x44c>
 804a98d:	2e 69 63 73 2e 63 73 	imul   $0x2e73632e,%cs:0x73(%ebx),%esp
 804a994:	2e 
 804a995:	63 6d 75             	arpl   %bp,0x75(%ebp)
 804a998:	2e                   	cs
 804a999:	65                   	gs
 804a99a:	64                   	fs
 804a99b:	75 00                	jne    804a99d <_IO_stdin_used+0x3f1>
 804a99d:	00 00                	add    %al,(%eax)
 804a99f:	00 69 6e             	add    %ch,0x6e(%ecx)
 804a9a2:	69 74 69 61 6c 69 7a 	imul   $0x657a696c,0x61(%ecx,%ebp,2),%esi
 804a9a9:	65 
 804a9aa:	5f                   	pop    %edi
 804a9ab:	62 6f 6d             	bound  %ebp,0x6d(%edi)
 804a9ae:	62 3a                	bound  %edi,(%edx)
 804a9b0:	20 43 6f             	and    %al,0x6f(%ebx)
 804a9b3:	75 6c                	jne    804aa21 <_IO_stdin_used+0x475>
 804a9b5:	64 20 6e 6f          	and    %ch,%fs:0x6f(%esi)
 804a9b9:	74 20                	je     804a9db <_IO_stdin_used+0x42f>
 804a9bb:	67                   	addr16
 804a9bc:	65                   	gs
 804a9bd:	74 20                	je     804a9df <_IO_stdin_used+0x433>
 804a9bf:	68 6f 73 74 6e       	push   $0x6e74736f
 804a9c4:	61                   	popa   
 804a9c5:	6d                   	insl   (%dx),%es:(%edi)
 804a9c6:	65 20 6f 66          	and    %ch,%gs:0x66(%edi)
 804a9ca:	20 74 68 69          	and    %dh,0x69(%eax,%ebp,2)
 804a9ce:	73 20                	jae    804a9f0 <_IO_stdin_used+0x444>
 804a9d0:	6d                   	insl   (%dx),%es:(%edi)
 804a9d1:	61                   	popa   
 804a9d2:	63 68 69             	arpl   %bp,0x69(%eax)
 804a9d5:	6e                   	outsb  %ds:(%esi),(%dx)
 804a9d6:	65 00 69 6e          	add    %ch,%gs:0x6e(%ecx)
 804a9da:	69 74 69 61 6c 69 7a 	imul   $0x657a696c,0x61(%ecx,%ebp,2),%esi
 804a9e1:	65 
 804a9e2:	5f                   	pop    %edi
 804a9e3:	62 6f 6d             	bound  %ebp,0x6d(%edi)
 804a9e6:	62 3a                	bound  %edi,(%edx)
 804a9e8:	20 45 72             	and    %al,0x72(%ebp)
 804a9eb:	72 6f                	jb     804aa5c <_IO_stdin_used+0x4b0>
 804a9ed:	72 3a                	jb     804aa29 <_IO_stdin_used+0x47d>
 804a9ef:	20 25 73 20 69 73    	and    %ah,0x73692073
 804a9f5:	20 6e 6f             	and    %ch,0x6f(%esi)
 804a9f8:	74 20                	je     804aa1a <_IO_stdin_used+0x46e>
 804a9fa:	6f                   	outsl  %ds:(%esi),(%dx)
 804a9fb:	6e                   	outsb  %ds:(%esi),(%dx)
 804a9fc:	65 20 6f 66          	and    %ch,%gs:0x66(%edi)
 804aa00:	20 74 68 65          	and    %dh,0x65(%eax,%ebp,2)
 804aa04:	20 6c 65 67          	and    %ch,0x67(%ebp,%eiz,2)
 804aa08:	61                   	popa   
 804aa09:	6c                   	insb   (%dx),%es:(%edi)
 804aa0a:	20 68 6f             	and    %ch,0x6f(%eax)
 804aa0d:	73 74                	jae    804aa83 <_IO_stdin_used+0x4d7>
 804aa0f:	73 3a                	jae    804aa4b <_IO_stdin_used+0x49f>
 804aa11:	0a 00                	or     (%eax),%al
 804aa13:	69 6e 69 74 69 61 6c 	imul   $0x6c616974,0x69(%esi),%ebp
 804aa1a:	69 7a 65 5f 62 6f 6d 	imul   $0x6d6f625f,0x65(%edx),%edi
 804aa21:	62 3a                	bound  %edi,(%edx)
 804aa23:	20 25 73 0a 00 4e    	and    %ah,0x4e000a73
 804aa29:	6f                   	outsl  %ds:(%esi),(%dx)
 804aa2a:	20 75 73             	and    %dh,0x73(%ebp)
 804aa2d:	65                   	gs
 804aa2e:	72 69                	jb     804aa99 <_IO_stdin_used+0x4ed>
 804aa30:	64 20 69 6e          	and    %ch,%fs:0x6e(%ecx)
 804aa34:	64 69 63 61 74 65 64 	imul   $0x2e646574,%fs:0x61(%ebx),%esp
 804aa3b:	2e 
 804aa3c:	20 20                	and    %ah,(%eax)
 804aa3e:	52                   	push   %edx
 804aa3f:	65                   	gs
 804aa40:	73 75                	jae    804aab7 <_IO_stdin_used+0x50b>
 804aa42:	6c                   	insb   (%dx),%es:(%edi)
 804aa43:	74 73                	je     804aab8 <_IO_stdin_used+0x50c>
 804aa45:	20 6e 6f             	and    %ch,0x6f(%esi)
 804aa48:	74 20                	je     804aa6a <_IO_stdin_used+0x4be>
 804aa4a:	76 61                	jbe    804aaad <_IO_stdin_used+0x501>
 804aa4c:	6c                   	insb   (%dx),%es:(%edi)
 804aa4d:	69 64 61 74 65 64 00 	imul   $0x49006465,0x74(%ecx,%eiz,2),%esp
 804aa54:	49 
 804aa55:	6e                   	outsb  %ds:(%esi),(%dx)
 804aa56:	76 61                	jbe    804aab9 <_IO_stdin_used+0x50d>
 804aa58:	6c                   	insb   (%dx),%es:(%edi)
 804aa59:	69 64 20 6c 65 76 65 	imul   $0x6c657665,0x6c(%eax,%eiz,1),%esp
 804aa60:	6c 
 804aa61:	2e 20 20             	and    %ah,%cs:(%eax)
 804aa64:	52                   	push   %edx
 804aa65:	65                   	gs
 804aa66:	73 75                	jae    804aadd <_IO_stdin_used+0x531>
 804aa68:	6c                   	insb   (%dx),%es:(%edi)
 804aa69:	74 73                	je     804aade <_IO_stdin_used+0x532>
 804aa6b:	20 6e 6f             	and    %ch,0x6f(%esi)
 804aa6e:	74 20                	je     804aa90 <_IO_stdin_used+0x4e4>
 804aa70:	76 61                	jbe    804aad3 <_IO_stdin_used+0x527>
 804aa72:	6c                   	insb   (%dx),%es:(%edi)
 804aa73:	69 64 61 74 65 64 00 	imul   $0x4b006465,0x74(%ecx,%eiz,2),%esp
 804aa7a:	4b 
 804aa7b:	65                   	gs
 804aa7c:	65                   	gs
 804aa7d:	70 20                	jo     804aa9f <_IO_stdin_used+0x4f3>
 804aa7f:	67 6f                	outsl  %ds:(%si),(%dx)
 804aa81:	69 6e 67 00 56 41 4c 	imul   $0x4c415600,0x67(%esi),%ebp
 804aa88:	49                   	dec    %ecx
 804aa89:	44                   	inc    %esp
 804aa8a:	00 00                	add    %al,(%eax)
 804aa8c:	57                   	push   %edi
 804aa8d:	61                   	popa   
 804aa8e:	72 6e                	jb     804aafe <_IO_stdin_used+0x552>
 804aa90:	69 6e 67 3a 20 49 6e 	imul   $0x6e49203a,0x67(%esi),%ebp
 804aa97:	70 75                	jo     804ab0e <_IO_stdin_used+0x562>
 804aa99:	74 20                	je     804aabb <_IO_stdin_used+0x50f>
 804aa9b:	73 74                	jae    804ab11 <_IO_stdin_used+0x565>
 804aa9d:	72 69                	jb     804ab08 <_IO_stdin_used+0x55c>
 804aa9f:	6e                   	outsb  %ds:(%esi),(%dx)
 804aaa0:	67 20 74 6f          	and    %dh,0x6f(%si)
 804aaa4:	6f                   	outsl  %ds:(%esi),(%dx)
 804aaa5:	20 6c 61 72          	and    %ch,0x72(%ecx,%eiz,2)
 804aaa9:	67 65 2e 20 52 65    	gs and %dl,%cs:%gs:0x65(%bp,%si)
 804aaaf:	73 75                	jae    804ab26 <_IO_stdin_used+0x57a>
 804aab1:	6c                   	insb   (%dx),%es:(%edi)
 804aab2:	74 73                	je     804ab27 <_IO_stdin_used+0x57b>
 804aab4:	20 6e 6f             	and    %ch,0x6f(%esi)
 804aab7:	74 20                	je     804aad9 <_IO_stdin_used+0x52d>
 804aab9:	76 61                	jbe    804ab1c <_IO_stdin_used+0x570>
 804aabb:	6c                   	insb   (%dx),%es:(%edi)
 804aabc:	69 64 61 74 65 64 00 	imul   $0x25006465,0x74(%ecx,%eiz,2),%esp
 804aac3:	25 
 804aac4:	64 3a 25 78 3a 25 73 	cmp    %fs:0x73253a78,%ah
 804aacb:	00 53 65             	add    %dl,0x65(%ebx)
 804aace:	6e                   	outsb  %ds:(%esi),(%dx)
 804aacf:	74 20                	je     804aaf1 <_IO_stdin_used+0x545>
 804aad1:	65                   	gs
 804aad2:	78 70                	js     804ab44 <_IO_stdin_used+0x598>
 804aad4:	6c                   	insb   (%dx),%es:(%edi)
 804aad5:	6f                   	outsl  %ds:(%esi),(%dx)
 804aad6:	69 74 20 73 74 72 69 	imul   $0x6e697274,0x73(%eax,%eiz,1),%esi
 804aadd:	6e 
 804aade:	67 20 74 6f          	and    %dh,0x6f(%si)
 804aae2:	20 73 65             	and    %dh,0x65(%ebx)
 804aae5:	72 76                	jb     804ab5d <_IO_stdin_used+0x5b1>
 804aae7:	65                   	gs
 804aae8:	72 20                	jb     804ab0a <_IO_stdin_used+0x55e>
 804aaea:	74 6f                	je     804ab5b <_IO_stdin_used+0x5af>
 804aaec:	20 62 65             	and    %ah,0x65(%edx)
 804aaef:	20 76 61             	and    %dh,0x61(%esi)
 804aaf2:	6c                   	insb   (%dx),%es:(%edi)
 804aaf3:	69 64 61 74 65 64 2e 	imul   $0x2e6465,0x74(%ecx,%eiz,2),%esp
 804aafa:	00 
 804aafb:	00 57 61             	add    %dl,0x61(%edi)
 804aafe:	72 6e                	jb     804ab6e <_IO_stdin_used+0x5c2>
 804ab00:	69 6e 67 3a 20 55 6e 	imul   $0x6e55203a,0x67(%esi),%ebp
 804ab07:	61                   	popa   
 804ab08:	62 6c 65 20          	bound  %ebp,0x20(%ebp,%eiz,2)
 804ab0c:	74 6f                	je     804ab7d <_IO_stdin_used+0x5d1>
 804ab0e:	20 73 65             	and    %dh,0x65(%ebx)
 804ab11:	6e                   	outsb  %ds:(%esi),(%dx)
 804ab12:	64 20 65 78          	and    %ah,%fs:0x78(%ebp)
 804ab16:	70 6c                	jo     804ab84 <_IO_stdin_used+0x5d8>
 804ab18:	6f                   	outsl  %ds:(%esi),(%dx)
 804ab19:	69 74 20 73 74 72 69 	imul   $0x6e697274,0x73(%eax,%eiz,1),%esi
 804ab20:	6e 
 804ab21:	67 20 74 6f          	and    %dh,0x6f(%si)
 804ab25:	20 67 72             	and    %ah,0x72(%edi)
 804ab28:	61                   	popa   
 804ab29:	64 69 6e 67 20 73 65 	imul   $0x72657320,%fs:0x67(%esi),%ebp
 804ab30:	72 
 804ab31:	76 65                	jbe    804ab98 <_IO_stdin_used+0x5ec>
 804ab33:	72 3a                	jb     804ab6f <_IO_stdin_used+0x5c3>
 804ab35:	0a 25 73 0a 00 4e    	or     0x4e000a73,%ah
 804ab3b:	49                   	dec    %ecx
 804ab3c:	43                   	inc    %ebx
 804ab3d:	45                   	inc    %ebp
 804ab3e:	20 4a 4f             	and    %cl,0x4f(%edx)
 804ab41:	42                   	inc    %edx
 804ab42:	21 00                	and    %eax,(%eax)
 804ab44:	50                   	push   %eax
 804ab45:	72 6f                	jb     804abb6 <_IO_stdin_used+0x60a>
 804ab47:	67 72 61             	addr16 jb 804abab <_IO_stdin_used+0x5ff>
 804ab4a:	6d                   	insl   (%dx),%es:(%edi)
 804ab4b:	20 74 69 6d          	and    %dh,0x6d(%ecx,%ebp,2)
 804ab4f:	65 64 20 6f 75       	gs and %ch,%fs:%gs:0x75(%edi)
 804ab54:	74 20                	je     804ab76 <_IO_stdin_used+0x5ca>
 804ab56:	61                   	popa   
 804ab57:	66                   	data16
 804ab58:	74 65                	je     804abbf <_IO_stdin_used+0x613>
 804ab5a:	72 20                	jb     804ab7c <_IO_stdin_used+0x5d0>
 804ab5c:	25 64 20 73 65       	and    $0x65732064,%eax
 804ab61:	63 6f 6e             	arpl   %bp,0x6e(%edi)
 804ab64:	64                   	fs
 804ab65:	73 0a                	jae    804ab71 <_IO_stdin_used+0x5c5>
 804ab67:	00 25 25 25 30 32    	add    %ah,0x32302525
 804ab6d:	58                   	pop    %eax
 804ab6e:	00 00                	add    %al,(%eax)
 804ab70:	45                   	inc    %ebp
 804ab71:	72 72                	jb     804abe5 <_IO_stdin_used+0x639>
 804ab73:	6f                   	outsl  %ds:(%esi),(%dx)
 804ab74:	72 3a                	jb     804abb0 <_IO_stdin_used+0x604>
 804ab76:	20 43 6c             	and    %al,0x6c(%ebx)
 804ab79:	69 65 6e 74 20 75 6e 	imul   $0x6e752074,0x6e(%ebp),%esp
 804ab80:	61                   	popa   
 804ab81:	62 6c 65 20          	bound  %ebp,0x20(%ebp,%eiz,2)
 804ab85:	74 6f                	je     804abf6 <_IO_stdin_used+0x64a>
 804ab87:	20 63 72             	and    %ah,0x72(%ebx)
 804ab8a:	65                   	gs
 804ab8b:	61                   	popa   
 804ab8c:	74 65                	je     804abf3 <_IO_stdin_used+0x647>
 804ab8e:	20 73 6f             	and    %dh,0x6f(%ebx)
 804ab91:	63 6b 65             	arpl   %bp,0x65(%ebx)
 804ab94:	74 00                	je     804ab96 <_IO_stdin_used+0x5ea>
 804ab96:	00 00                	add    %al,(%eax)
 804ab98:	45                   	inc    %ebp
 804ab99:	72 72                	jb     804ac0d <_IO_stdin_used+0x661>
 804ab9b:	6f                   	outsl  %ds:(%esi),(%dx)
 804ab9c:	72 3a                	jb     804abd8 <_IO_stdin_used+0x62c>
 804ab9e:	20 44 4e 53          	and    %al,0x53(%esi,%ecx,2)
 804aba2:	20 75 6e             	and    %dh,0x6e(%ebp)
 804aba5:	61                   	popa   
 804aba6:	62 6c 65 20          	bound  %ebp,0x20(%ebp,%eiz,2)
 804abaa:	74 6f                	je     804ac1b <_IO_stdin_used+0x66f>
 804abac:	20 72 65             	and    %dh,0x65(%edx)
 804abaf:	73 6f                	jae    804ac20 <_IO_stdin_used+0x674>
 804abb1:	6c                   	insb   (%dx),%es:(%edi)
 804abb2:	76 65                	jbe    804ac19 <_IO_stdin_used+0x66d>
 804abb4:	20 61 64             	and    %ah,0x64(%ecx)
 804abb7:	64                   	fs
 804abb8:	72 65                	jb     804ac1f <_IO_stdin_used+0x673>
 804abba:	73 73                	jae    804ac2f <_IO_stdin_used+0x683>
 804abbc:	20 66 6f             	and    %ah,0x6f(%esi)
 804abbf:	72 20                	jb     804abe1 <_IO_stdin_used+0x635>
 804abc1:	25 73 00 45 72       	and    $0x72450073,%eax
 804abc6:	72 6f                	jb     804ac37 <_IO_stdin_used+0x68b>
 804abc8:	72 3a                	jb     804ac04 <_IO_stdin_used+0x658>
 804abca:	20 55 6e             	and    %dl,0x6e(%ebp)
 804abcd:	61                   	popa   
 804abce:	62 6c 65 20          	bound  %ebp,0x20(%ebp,%eiz,2)
 804abd2:	74 6f                	je     804ac43 <_IO_stdin_used+0x697>
 804abd4:	20 63 6f             	and    %ah,0x6f(%ebx)
 804abd7:	6e                   	outsb  %ds:(%esi),(%dx)
 804abd8:	6e                   	outsb  %ds:(%esi),(%dx)
 804abd9:	65 63 74 20 74       	arpl   %si,%gs:0x74(%eax,%eiz,1)
 804abde:	6f                   	outsl  %ds:(%esi),(%dx)
 804abdf:	20 73 65             	and    %dh,0x65(%ebx)
 804abe2:	72 76                	jb     804ac5a <_IO_stdin_used+0x6ae>
 804abe4:	65                   	gs
 804abe5:	72 20                	jb     804ac07 <_IO_stdin_used+0x65b>
 804abe7:	25 73 00 00 00       	and    $0x73,%eax
 804abec:	45                   	inc    %ebp
 804abed:	72 72                	jb     804ac61 <_IO_stdin_used+0x6b5>
 804abef:	6f                   	outsl  %ds:(%esi),(%dx)
 804abf0:	72 3a                	jb     804ac2c <_IO_stdin_used+0x680>
 804abf2:	20 52 65             	and    %dl,0x65(%edx)
 804abf5:	73 75                	jae    804ac6c <_IO_stdin_used+0x6c0>
 804abf7:	6c                   	insb   (%dx),%es:(%edi)
 804abf8:	74 20                	je     804ac1a <_IO_stdin_used+0x66e>
 804abfa:	73 74                	jae    804ac70 <_IO_stdin_used+0x6c4>
 804abfc:	72 69                	jb     804ac67 <_IO_stdin_used+0x6bb>
 804abfe:	6e                   	outsb  %ds:(%esi),(%dx)
 804abff:	67 20 74 6f          	and    %dh,0x6f(%si)
 804ac03:	6f                   	outsl  %ds:(%esi),(%dx)
 804ac04:	20 6c 61 72          	and    %ch,0x72(%ecx,%eiz,2)
 804ac08:	67 65 2e 20 49 6e    	gs and %cl,%cs:%gs:0x6e(%bx,%di)
 804ac0e:	63 72 65             	arpl   %si,0x65(%edx)
 804ac11:	61                   	popa   
 804ac12:	73 65                	jae    804ac79 <_IO_stdin_used+0x6cd>
 804ac14:	20 53 55             	and    %dl,0x55(%ebx)
 804ac17:	42                   	inc    %edx
 804ac18:	4d                   	dec    %ebp
 804ac19:	49                   	dec    %ecx
 804ac1a:	54                   	push   %esp
 804ac1b:	52                   	push   %edx
 804ac1c:	5f                   	pop    %edi
 804ac1d:	4d                   	dec    %ebp
 804ac1e:	41                   	inc    %ecx
 804ac1f:	58                   	pop    %eax
 804ac20:	42                   	inc    %edx
 804ac21:	55                   	push   %ebp
 804ac22:	46                   	inc    %esi
 804ac23:	00 45 72             	add    %al,0x72(%ebp)
 804ac26:	72 6f                	jb     804ac97 <_IO_stdin_used+0x6eb>
 804ac28:	72 3a                	jb     804ac64 <_IO_stdin_used+0x6b8>
 804ac2a:	20 52 65             	and    %dl,0x65(%edx)
 804ac2d:	73 75                	jae    804aca4 <_IO_stdin_used+0x6f8>
 804ac2f:	6c                   	insb   (%dx),%es:(%edi)
 804ac30:	74 20                	je     804ac52 <_IO_stdin_used+0x6a6>
 804ac32:	73 74                	jae    804aca8 <_IO_stdin_used+0x6fc>
 804ac34:	72 69                	jb     804ac9f <_IO_stdin_used+0x6f3>
 804ac36:	6e                   	outsb  %ds:(%esi),(%dx)
 804ac37:	67 20 63 6f          	and    %ah,0x6f(%bp,%di)
 804ac3b:	6e                   	outsb  %ds:(%esi),(%dx)
 804ac3c:	74 61                	je     804ac9f <_IO_stdin_used+0x6f3>
 804ac3e:	69 6e 73 20 61 6e 20 	imul   $0x206e6120,0x73(%esi),%ebp
 804ac45:	69 6c 6c 65 67 61 6c 	imul   $0x206c6167,0x65(%esp,%ebp,2),%ebp
 804ac4c:	20 
 804ac4d:	6f                   	outsl  %ds:(%esi),(%dx)
 804ac4e:	72 20                	jb     804ac70 <_IO_stdin_used+0x6c4>
 804ac50:	75 6e                	jne    804acc0 <_IO_stdin_used+0x714>
 804ac52:	70 72                	jo     804acc6 <_IO_stdin_used+0x71a>
 804ac54:	69 6e 74 61 62 6c 65 	imul   $0x656c6261,0x74(%esi),%ebp
 804ac5b:	20 63 68             	and    %ah,0x68(%ebx)
 804ac5e:	61                   	popa   
 804ac5f:	72 61                	jb     804acc2 <_IO_stdin_used+0x716>
 804ac61:	63 74 65 72          	arpl   %si,0x72(%ebp,%eiz,2)
 804ac65:	2e 00 00             	add    %al,%cs:(%eax)
 804ac68:	47                   	inc    %edi
 804ac69:	45                   	inc    %ebp
 804ac6a:	54                   	push   %esp
 804ac6b:	20 2f                	and    %ch,(%edi)
 804ac6d:	25 73 2f 73 75       	and    $0x75732f73,%eax
 804ac72:	62 6d 69             	bound  %ebp,0x69(%ebp)
 804ac75:	74 72                	je     804ace9 <_IO_stdin_used+0x73d>
 804ac77:	2e 70 6c             	jo,pn  804ace6 <_IO_stdin_used+0x73a>
 804ac7a:	2f                   	das    
 804ac7b:	3f                   	aas    
 804ac7c:	75 73                	jne    804acf1 <_IO_stdin_used+0x745>
 804ac7e:	65                   	gs
 804ac7f:	72 69                	jb     804acea <_IO_stdin_used+0x73e>
 804ac81:	64                   	fs
 804ac82:	3d 25 73 26 6c       	cmp    $0x6c267325,%eax
 804ac87:	61                   	popa   
 804ac88:	62 3d 25 73 26 72    	bound  %edi,0x72267325
 804ac8e:	65                   	gs
 804ac8f:	73 75                	jae    804ad06 <_IO_stdin_used+0x75a>
 804ac91:	6c                   	insb   (%dx),%es:(%edi)
 804ac92:	74 3d                	je     804acd1 <_IO_stdin_used+0x725>
 804ac94:	25 73 26 73 75       	and    $0x75732673,%eax
 804ac99:	62 6d 69             	bound  %ebp,0x69(%ebp)
 804ac9c:	74 3d                	je     804acdb <_IO_stdin_used+0x72f>
 804ac9e:	73 75                	jae    804ad15 <_IO_stdin_used+0x769>
 804aca0:	62 6d 69             	bound  %ebp,0x69(%ebp)
 804aca3:	74 20                	je     804acc5 <_IO_stdin_used+0x719>
 804aca5:	48                   	dec    %eax
 804aca6:	54                   	push   %esp
 804aca7:	54                   	push   %esp
 804aca8:	50                   	push   %eax
 804aca9:	2f                   	das    
 804acaa:	31 2e                	xor    %ebp,(%esi)
 804acac:	30 0d 0a 0d 0a 00    	xor    %cl,0xa0d0a
 804acb2:	00 00                	add    %al,(%eax)
 804acb4:	45                   	inc    %ebp
 804acb5:	72 72                	jb     804ad29 <_IO_stdin_used+0x77d>
 804acb7:	6f                   	outsl  %ds:(%esi),(%dx)
 804acb8:	72 3a                	jb     804acf4 <_IO_stdin_used+0x748>
 804acba:	20 43 6c             	and    %al,0x6c(%ebx)
 804acbd:	69 65 6e 74 20 75 6e 	imul   $0x6e752074,0x6e(%ebp),%esp
 804acc4:	61                   	popa   
 804acc5:	62 6c 65 20          	bound  %ebp,0x20(%ebp,%eiz,2)
 804acc9:	74 6f                	je     804ad3a <_IO_stdin_used+0x78e>
 804accb:	20 77 72             	and    %dh,0x72(%edi)
 804acce:	69 74 65 20 74 6f 20 	imul   $0x74206f74,0x20(%ebp,%eiz,2),%esi
 804acd5:	74 
 804acd6:	68 65 20 73 65       	push   $0x65732065
 804acdb:	72 76                	jb     804ad53 <_IO_stdin_used+0x7a7>
 804acdd:	65                   	gs
 804acde:	72 00                	jb     804ace0 <_IO_stdin_used+0x734>
 804ace0:	45                   	inc    %ebp
 804ace1:	72 72                	jb     804ad55 <_IO_stdin_used+0x7a9>
 804ace3:	6f                   	outsl  %ds:(%esi),(%dx)
 804ace4:	72 3a                	jb     804ad20 <_IO_stdin_used+0x774>
 804ace6:	20 43 6c             	and    %al,0x6c(%ebx)
 804ace9:	69 65 6e 74 20 75 6e 	imul   $0x6e752074,0x6e(%ebp),%esp
 804acf0:	61                   	popa   
 804acf1:	62 6c 65 20          	bound  %ebp,0x20(%ebp,%eiz,2)
 804acf5:	74 6f                	je     804ad66 <_IO_stdin_used+0x7ba>
 804acf7:	20 72 65             	and    %dh,0x65(%edx)
 804acfa:	61                   	popa   
 804acfb:	64 20 66 69          	and    %ah,%fs:0x69(%esi)
 804acff:	72 73                	jb     804ad74 <_IO_stdin_used+0x7c8>
 804ad01:	74 20                	je     804ad23 <_IO_stdin_used+0x777>
 804ad03:	68 65 61 64 65       	push   $0x65646165
 804ad08:	72 20                	jb     804ad2a <_IO_stdin_used+0x77e>
 804ad0a:	66                   	data16
 804ad0b:	72 6f                	jb     804ad7c <_IO_stdin_used+0x7d0>
 804ad0d:	6d                   	insl   (%dx),%es:(%edi)
 804ad0e:	20 73 65             	and    %dh,0x65(%ebx)
 804ad11:	72 76                	jb     804ad89 <_IO_stdin_used+0x7dd>
 804ad13:	65                   	gs
 804ad14:	72 00                	jb     804ad16 <_IO_stdin_used+0x76a>
 804ad16:	25 73 20 25 64       	and    $0x64252073,%eax
 804ad1b:	20 25 5b 61 2d 7a    	and    %ah,0x7a2d615b
 804ad21:	41                   	inc    %ecx
 804ad22:	2d 7a 20 5d 00       	sub    $0x5d207a,%eax
 804ad27:	00 45 72             	add    %al,0x72(%ebp)
 804ad2a:	72 6f                	jb     804ad9b <_IO_stdin_used+0x7ef>
 804ad2c:	72 3a                	jb     804ad68 <_IO_stdin_used+0x7bc>
 804ad2e:	20 48 54             	and    %cl,0x54(%eax)
 804ad31:	54                   	push   %esp
 804ad32:	50                   	push   %eax
 804ad33:	20 72 65             	and    %dh,0x65(%edx)
 804ad36:	71 75                	jno    804adad <_IO_stdin_used+0x801>
 804ad38:	65                   	gs
 804ad39:	73 74                	jae    804adaf <_IO_stdin_used+0x803>
 804ad3b:	20 66 61             	and    %ah,0x61(%esi)
 804ad3e:	69 6c 65 64 20 77 69 	imul   $0x74697720,0x64(%ebp,%eiz,2),%ebp
 804ad45:	74 
 804ad46:	68 20 65 72 72       	push   $0x72726520
 804ad4b:	6f                   	outsl  %ds:(%esi),(%dx)
 804ad4c:	72 20                	jb     804ad6e <_IO_stdin_used+0x7c2>
 804ad4e:	25 64 3a 20 25       	and    $0x25203a64,%eax
 804ad53:	73 00                	jae    804ad55 <_IO_stdin_used+0x7a9>
 804ad55:	00 00                	add    %al,(%eax)
 804ad57:	00 45 72             	add    %al,0x72(%ebp)
 804ad5a:	72 6f                	jb     804adcb <_IO_stdin_used+0x81f>
 804ad5c:	72 3a                	jb     804ad98 <_IO_stdin_used+0x7ec>
 804ad5e:	20 43 6c             	and    %al,0x6c(%ebx)
 804ad61:	69 65 6e 74 20 75 6e 	imul   $0x6e752074,0x6e(%ebp),%esp
 804ad68:	61                   	popa   
 804ad69:	62 6c 65 20          	bound  %ebp,0x20(%ebp,%eiz,2)
 804ad6d:	74 6f                	je     804adde <_IO_stdin_used+0x832>
 804ad6f:	20 72 65             	and    %dh,0x65(%edx)
 804ad72:	61                   	popa   
 804ad73:	64 20 68 65          	and    %ch,%fs:0x65(%eax)
 804ad77:	61                   	popa   
 804ad78:	64                   	fs
 804ad79:	65                   	gs
 804ad7a:	72 73                	jb     804adef <_IO_stdin_used+0x843>
 804ad7c:	20 66 72             	and    %ah,0x72(%esi)
 804ad7f:	6f                   	outsl  %ds:(%esi),(%dx)
 804ad80:	6d                   	insl   (%dx),%es:(%edi)
 804ad81:	20 73 65             	and    %dh,0x65(%ebx)
 804ad84:	72 76                	jb     804adfc <_IO_stdin_used+0x850>
 804ad86:	65                   	gs
 804ad87:	72 00                	jb     804ad89 <_IO_stdin_used+0x7dd>
 804ad89:	0d 0a 00 45 72       	or     $0x7245000a,%eax
 804ad8e:	72 6f                	jb     804adff <_IO_stdin_used+0x853>
 804ad90:	72 3a                	jb     804adcc <_IO_stdin_used+0x820>
 804ad92:	20 43 6c             	and    %al,0x6c(%ebx)
 804ad95:	69 65 6e 74 20 75 6e 	imul   $0x6e752074,0x6e(%ebp),%esp
 804ad9c:	61                   	popa   
 804ad9d:	62 6c 65 20          	bound  %ebp,0x20(%ebp,%eiz,2)
 804ada1:	74 6f                	je     804ae12 <_IO_stdin_used+0x866>
 804ada3:	20 72 65             	and    %dh,0x65(%edx)
 804ada6:	61                   	popa   
 804ada7:	64 20 73 74          	and    %dh,%fs:0x74(%ebx)
 804adab:	61                   	popa   
 804adac:	74 75                	je     804ae23 <_IO_stdin_used+0x877>
 804adae:	73 20                	jae    804add0 <_IO_stdin_used+0x824>
 804adb0:	6d                   	insl   (%dx),%es:(%edi)
 804adb1:	65                   	gs
 804adb2:	73 73                	jae    804ae27 <_IO_stdin_used+0x87b>
 804adb4:	61                   	popa   
 804adb5:	67 65 20 66 72       	and    %ah,%gs:0x72(%bp)
 804adba:	6f                   	outsl  %ds:(%esi),(%dx)
 804adbb:	6d                   	insl   (%dx),%es:(%edi)
 804adbc:	20 73 65             	and    %dh,0x65(%ebx)
 804adbf:	72 76                	jb     804ae37 <_IO_stdin_used+0x88b>
 804adc1:	65                   	gs
 804adc2:	72 00                	jb     804adc4 <_IO_stdin_used+0x818>
 804adc4:	4f                   	dec    %edi
 804adc5:	4b                   	dec    %ebx
 804adc6:	00 6d 61             	add    %ch,0x61(%ebp)
 804adc9:	6b 6f 73 68          	imul   $0x68,0x73(%edi),%ebp
 804adcd:	61                   	popa   
 804adce:	72 6b                	jb     804ae3b <_IO_stdin_used+0x88f>
 804add0:	2e 69 63 73 2e 63 73 	imul   $0x2e73632e,%cs:0x73(%ebx),%esp
 804add7:	2e 
 804add8:	63 6d 75             	arpl   %bp,0x75(%ebp)
 804addb:	2e                   	cs
 804addc:	65                   	gs
 804addd:	64                   	fs
 804adde:	75 00                	jne    804ade0 <_IO_stdin_used+0x834>
 804ade0:	45                   	inc    %ebp
 804ade1:	72 72                	jb     804ae55 <_IO_stdin_used+0x8a9>
 804ade3:	6f                   	outsl  %ds:(%esi),(%dx)
 804ade4:	72 3a                	jb     804ae20 <_IO_stdin_used+0x874>
 804ade6:	20 55 6e             	and    %dl,0x6e(%ebp)
 804ade9:	61                   	popa   
 804adea:	62 6c 65 20          	bound  %ebp,0x20(%ebp,%eiz,2)
 804adee:	74 6f                	je     804ae5f <_IO_stdin_used+0x8b3>
 804adf0:	20 63 6f             	and    %ah,0x6f(%ebx)
 804adf3:	6e                   	outsb  %ds:(%esi),(%dx)
 804adf4:	6e                   	outsb  %ds:(%esi),(%dx)
 804adf5:	65 63 74 20 74       	arpl   %si,%gs:0x74(%eax,%eiz,1)
 804adfa:	6f                   	outsl  %ds:(%esi),(%dx)
 804adfb:	20 73 65             	and    %dh,0x65(%ebx)
 804adfe:	72 76                	jb     804ae76 <_IO_stdin_used+0x8ca>
 804ae00:	65                   	gs
 804ae01:	72 20                	jb     804ae23 <_IO_stdin_used+0x877>
 804ae03:	25 73 3a 25 64       	and    $0x64253a73,%eax
 804ae08:	00 0a                	add    %cl,(%edx)
 804ae0a:	41                   	inc    %ecx
 804ae0b:	55                   	push   %ebp
 804ae0c:	54                   	push   %esp
 804ae0d:	4f                   	dec    %edi
 804ae0e:	52                   	push   %edx
 804ae0f:	45                   	inc    %ebp
 804ae10:	53                   	push   %ebx
 804ae11:	55                   	push   %ebp
 804ae12:	4c                   	dec    %esp
 804ae13:	54                   	push   %esp
 804ae14:	5f                   	pop    %edi
 804ae15:	53                   	push   %ebx
 804ae16:	54                   	push   %esp
 804ae17:	52                   	push   %edx
 804ae18:	49                   	dec    %ecx
 804ae19:	4e                   	dec    %esi
 804ae1a:	47                   	inc    %edi
 804ae1b:	3d 25 73 0a 00       	cmp    $0xa7325,%eax
 804ae20:	62 75 66             	bound  %esi,0x66(%ebp)
 804ae23:	6c                   	insb   (%dx),%es:(%edi)
 804ae24:	61                   	popa   
 804ae25:	62 00                	bound  %eax,(%eax)
 804ae27:	63 73 61             	arpl   %si,0x61(%ebx)
 804ae2a:	70 70                	jo     804ae9c <_IO_stdin_used+0x8f0>
	...

Disassembly of section .eh_frame_hdr:

0804ae30 <.eh_frame_hdr>:
 804ae30:	01 1b                	add    %ebx,(%ebx)
 804ae32:	03 3b                	add    (%ebx),%edi
 804ae34:	30 01                	xor    %al,(%ecx)
 804ae36:	00 00                	add    %al,(%eax)
 804ae38:	25 00 00 00 d0       	and    $0xd0000000,%eax
 804ae3d:	d9 ff                	fcos   
 804ae3f:	ff 4c 01 00          	decl   0x0(%ecx,%eax,1)
 804ae43:	00 d4                	add    %dl,%ah
 804ae45:	dc ff                	fdivr  %st,%st(7)
 804ae47:	ff 70 01             	pushl  0x1(%eax)
 804ae4a:	00 00                	add    %al,(%eax)
 804ae4c:	fe                   	(bad)  
 804ae4d:	dc ff                	fdivr  %st,%st(7)
 804ae4f:	ff 8c 01 00 00 52 dd 	decl   -0x22ae0000(%ecx,%eax,1)
 804ae56:	ff                   	(bad)  
 804ae57:	ff a8 01 00 00 b0    	ljmp   *-0x4fffffff(%eax)
 804ae5d:	dd ff                	(bad)  
 804ae5f:	ff c4                	inc    %esp
 804ae61:	01 00                	add    %eax,(%eax)
 804ae63:	00 24 de             	add    %ah,(%esi,%ebx,8)
 804ae66:	ff                   	(bad)  
 804ae67:	ff e4                	jmp    *%esp
 804ae69:	01 00                	add    %eax,(%eax)
 804ae6b:	00 98 de ff ff 04    	add    %bl,0x4ffffde(%eax)
 804ae71:	02 00                	add    (%eax),%al
 804ae73:	00 1e                	add    %bl,(%esi)
 804ae75:	df ff                	(bad)  
 804ae77:	ff 24 02             	jmp    *(%edx,%eax,1)
 804ae7a:	00 00                	add    %al,(%eax)
 804ae7c:	36                   	ss
 804ae7d:	df ff                	(bad)  
 804ae7f:	ff 44 02 00          	incl   0x0(%edx,%eax,1)
 804ae83:	00 9a df ff ff 64    	add    %bl,0x64ffffdf(%edx)
 804ae89:	02 00                	add    (%eax),%al
 804ae8b:	00 f0                	add    %dh,%al
 804ae8d:	df ff                	(bad)  
 804ae8f:	ff 80 02 00 00 1a    	incl   0x1a000002(%eax)
 804ae95:	e0 ff                	loopne 804ae96 <_IO_stdin_used+0x8ea>
 804ae97:	ff 9c 02 00 00 44 e0 	lcall  *-0x1fbc0000(%edx,%eax,1)
 804ae9e:	ff                   	(bad)  
 804ae9f:	ff                   	(bad)  
 804aea0:	b8 02 00 00 6e       	mov    $0x6e000002,%eax
 804aea5:	e0 ff                	loopne 804aea6 <_IO_stdin_used+0x8fa>
 804aea7:	ff d4                	call   *%esp
 804aea9:	02 00                	add    (%eax),%al
 804aeab:	00 17                	add    %dl,(%edi)
 804aead:	e1 ff                	loope  804aeae <_IO_stdin_used+0x902>
 804aeaf:	ff f4                	push   %esp
 804aeb1:	02 00                	add    (%eax),%al
 804aeb3:	00 f3                	add    %dh,%bl
 804aeb5:	e1 ff                	loope  804aeb6 <_IO_stdin_used+0x90a>
 804aeb7:	ff 14 03             	call   *(%ebx,%eax,1)
 804aeba:	00 00                	add    %al,(%eax)
 804aebc:	0d e2 ff ff 34       	or     $0x34ffffe2,%eax
 804aec1:	03 00                	add    (%eax),%eax
 804aec3:	00 54 e4 ff          	add    %dl,-0x1(%esp,%eiz,8)
 804aec7:	ff 58 03             	lcall  *0x3(%eax)
 804aeca:	00 00                	add    %al,(%eax)
 804aecc:	6c                   	insb   (%dx),%es:(%edi)
 804aecd:	e4 ff                	in     $0xff,%al
 804aecf:	ff                   	(bad)  
 804aed0:	78 03                	js     804aed5 <_IO_stdin_used+0x929>
 804aed2:	00 00                	add    %al,(%eax)
 804aed4:	8c e4                	mov    %fs,%esp
 804aed6:	ff                   	(bad)  
 804aed7:	ff 98 03 00 00 fe    	lcall  *-0x1fffffd(%eax)
 804aedd:	e5 ff                	in     $0xff,%eax
 804aedf:	ff                   	(bad)  
 804aee0:	b8 03 00 00 98       	mov    $0x98000003,%eax
 804aee5:	e7 ff                	out    %eax,$0xff
 804aee7:	ff e0                	jmp    *%eax
 804aee9:	03 00                	add    (%eax),%eax
 804aeeb:	00 bf e7 ff ff fc    	add    %bh,-0x3000019(%edi)
 804aef1:	03 00                	add    (%eax),%eax
 804aef3:	00 e2                	add    %ah,%dl
 804aef5:	e7 ff                	out    %eax,$0xff
 804aef7:	ff 1c 04             	lcall  *(%esp,%eax,1)
 804aefa:	00 00                	add    %al,(%eax)
 804aefc:	b5 e8                	mov    $0xe8,%ch
 804aefe:	ff                   	(bad)  
 804aeff:	ff                   	(bad)  
 804af00:	3c 04                	cmp    $0x4,%al
 804af02:	00 00                	add    %al,(%eax)
 804af04:	38 e9                	cmp    %ch,%cl
 804af06:	ff                   	(bad)  
 804af07:	ff 5c 04 00          	lcall  *0x0(%esp,%eax,1)
 804af0b:	00 a1 e9 ff ff 7c    	add    %ah,0x7cffffe9(%ecx)
 804af11:	04 00                	add    $0x0,%al
 804af13:	00 1c eb             	add    %bl,(%ebx,%ebp,8)
 804af16:	ff                   	(bad)  
 804af17:	ff a4 04 00 00 02 f3 	jmp    *-0xcfe0000(%esp,%eax,1)
 804af1e:	ff                   	(bad)  
 804af1f:	ff d4                	call   *%esp
 804af21:	04 00                	add    $0x0,%al
 804af23:	00 3f                	add    %bh,(%edi)
 804af25:	f3 ff                	repz (bad) 
 804af27:	ff f4                	push   %esp
 804af29:	04 00                	add    $0x0,%al
 804af2b:	00 3d f5 ff ff 14    	add    %bh,0x14fffff5
 804af31:	05 00 00 e8 f5       	add    $0xf5e80000,%eax
 804af36:	ff                   	(bad)  
 804af37:	ff 34 05 00 00 1e f6 	pushl  -0x9e20000(,%eax,1)
 804af3e:	ff                   	(bad)  
 804af3f:	ff 54 05 00          	call   *0x0(%ebp,%eax,1)
 804af43:	00 73 f6             	add    %dh,-0xa(%ebx)
 804af46:	ff                   	(bad)  
 804af47:	ff                   	(bad)  
 804af48:	78 05                	js     804af4f <_IO_stdin_used+0x9a3>
 804af4a:	00 00                	add    %al,(%eax)
 804af4c:	b0 f6                	mov    $0xf6,%al
 804af4e:	ff                   	(bad)  
 804af4f:	ff 98 05 00 00 20    	lcall  *0x20000005(%eax)
 804af55:	f7 ff                	idiv   %edi
 804af57:	ff d4                	call   *%esp
 804af59:	05 00 00 22 f7       	add    $0xf7220000,%eax
 804af5e:	ff                   	(bad)  
 804af5f:	ff                   	(bad)  
 804af60:	e8                   	.byte 0xe8
 804af61:	05                   	.byte 0x5
	...

Disassembly of section .eh_frame:

0804af64 <__FRAME_END__-0x4c8>:
 804af64:	14 00                	adc    $0x0,%al
 804af66:	00 00                	add    %al,(%eax)
 804af68:	00 00                	add    %al,(%eax)
 804af6a:	00 00                	add    %al,(%eax)
 804af6c:	01 7a 52             	add    %edi,0x52(%edx)
 804af6f:	00 01                	add    %al,(%ecx)
 804af71:	7c 08                	jl     804af7b <_IO_stdin_used+0x9cf>
 804af73:	01 1b                	add    %ebx,(%ebx)
 804af75:	0c 04                	or     $0x4,%al
 804af77:	04 88                	add    $0x88,%al
 804af79:	01 00                	add    %eax,(%eax)
 804af7b:	00 20                	add    %ah,(%eax)
 804af7d:	00 00                	add    %al,(%eax)
 804af7f:	00 1c 00             	add    %bl,(%eax,%eax,1)
 804af82:	00 00                	add    %al,(%eax)
 804af84:	7c d8                	jl     804af5e <_IO_stdin_used+0x9b2>
 804af86:	ff                   	(bad)  
 804af87:	ff 50 02             	call   *0x2(%eax)
 804af8a:	00 00                	add    %al,(%eax)
 804af8c:	00 0e                	add    %cl,(%esi)
 804af8e:	08 46 0e             	or     %al,0xe(%esi)
 804af91:	0c 4a                	or     $0x4a,%al
 804af93:	0f 0b                	ud2    
 804af95:	74 04                	je     804af9b <_IO_stdin_used+0x9ef>
 804af97:	78 00                	js     804af99 <_IO_stdin_used+0x9ed>
 804af99:	3f                   	aas    
 804af9a:	1a 3b                	sbb    (%ebx),%bh
 804af9c:	2a 32                	sub    (%edx),%dh
 804af9e:	24 22                	and    $0x22,%al
 804afa0:	18 00                	sbb    %al,(%eax)
 804afa2:	00 00                	add    %al,(%eax)
 804afa4:	40                   	inc    %eax
 804afa5:	00 00                	add    %al,(%eax)
 804afa7:	00 5c db ff          	add    %bl,-0x1(%ebx,%ebx,8)
 804afab:	ff 2a                	ljmp   *(%edx)
 804afad:	00 00                	add    %al,(%eax)
 804afaf:	00 00                	add    %al,(%eax)
 804afb1:	41                   	inc    %ecx
 804afb2:	0e                   	push   %cs
 804afb3:	08 85 02 42 0d 05    	or     %al,0x50d4202(%ebp)
 804afb9:	00 00                	add    %al,(%eax)
 804afbb:	00 18                	add    %bl,(%eax)
 804afbd:	00 00                	add    %al,(%eax)
 804afbf:	00 5c 00 00          	add    %bl,0x0(%eax,%eax,1)
 804afc3:	00 6a db             	add    %ch,-0x25(%edx)
 804afc6:	ff                   	(bad)  
 804afc7:	ff 54 00 00          	call   *0x0(%eax,%eax,1)
 804afcb:	00 00                	add    %al,(%eax)
 804afcd:	41                   	inc    %ecx
 804afce:	0e                   	push   %cs
 804afcf:	08 85 02 42 0d 05    	or     %al,0x50d4202(%ebp)
 804afd5:	00 00                	add    %al,(%eax)
 804afd7:	00 18                	add    %bl,(%eax)
 804afd9:	00 00                	add    %al,(%eax)
 804afdb:	00 78 00             	add    %bh,0x0(%eax)
 804afde:	00 00                	add    %al,(%eax)
 804afe0:	a2 db ff ff 5e       	mov    %al,0x5effffdb
 804afe5:	00 00                	add    %al,(%eax)
 804afe7:	00 00                	add    %al,(%eax)
 804afe9:	41                   	inc    %ecx
 804afea:	0e                   	push   %cs
 804afeb:	08 85 02 42 0d 05    	or     %al,0x50d4202(%ebp)
 804aff1:	00 00                	add    %al,(%eax)
 804aff3:	00 1c 00             	add    %bl,(%eax,%eax,1)
 804aff6:	00 00                	add    %al,(%eax)
 804aff8:	94                   	xchg   %eax,%esp
 804aff9:	00 00                	add    %al,(%eax)
 804affb:	00 e4                	add    %ah,%ah
 804affd:	db ff                	(bad)  
 804afff:	ff 74 00 00          	pushl  0x0(%eax,%eax,1)
 804b003:	00 00                	add    %al,(%eax)
 804b005:	41                   	inc    %ecx
 804b006:	0e                   	push   %cs
 804b007:	08 85 02 42 0d 05    	or     %al,0x50d4202(%ebp)
 804b00d:	02 70 c5             	add    -0x3b(%eax),%dh
 804b010:	0c 04                	or     $0x4,%al
 804b012:	04 00                	add    $0x0,%al
 804b014:	1c 00                	sbb    $0x0,%al
 804b016:	00 00                	add    %al,(%eax)
 804b018:	b4 00                	mov    $0x0,%ah
 804b01a:	00 00                	add    %al,(%eax)
 804b01c:	38 dc                	cmp    %bl,%ah
 804b01e:	ff                   	(bad)  
 804b01f:	ff 74 00 00          	pushl  0x0(%eax,%eax,1)
 804b023:	00 00                	add    %al,(%eax)
 804b025:	41                   	inc    %ecx
 804b026:	0e                   	push   %cs
 804b027:	08 85 02 42 0d 05    	or     %al,0x50d4202(%ebp)
 804b02d:	02 70 c5             	add    -0x3b(%eax),%dh
 804b030:	0c 04                	or     $0x4,%al
 804b032:	04 00                	add    $0x0,%al
 804b034:	1c 00                	sbb    $0x0,%al
 804b036:	00 00                	add    %al,(%eax)
 804b038:	d4 00                	aam    $0x0
 804b03a:	00 00                	add    %al,(%eax)
 804b03c:	8c dc                	mov    %ds,%esp
 804b03e:	ff                   	(bad)  
 804b03f:	ff 86 00 00 00 00    	incl   0x0(%esi)
 804b045:	41                   	inc    %ecx
 804b046:	0e                   	push   %cs
 804b047:	08 85 02 42 0d 05    	or     %al,0x50d4202(%ebp)
 804b04d:	02 82 c5 0c 04 04    	add    0x4040cc5(%edx),%al
 804b053:	00 1c 00             	add    %bl,(%eax,%eax,1)
 804b056:	00 00                	add    %al,(%eax)
 804b058:	f4                   	hlt    
 804b059:	00 00                	add    %al,(%eax)
 804b05b:	00 f2                	add    %dh,%dl
 804b05d:	dc ff                	fdivr  %st,%st(7)
 804b05f:	ff 18                	lcall  *(%eax)
 804b061:	00 00                	add    %al,(%eax)
 804b063:	00 00                	add    %al,(%eax)
 804b065:	41                   	inc    %ecx
 804b066:	0e                   	push   %cs
 804b067:	08 85 02 42 0d 05    	or     %al,0x50d4202(%ebp)
 804b06d:	54                   	push   %esp
 804b06e:	0c 04                	or     $0x4,%al
 804b070:	04 c5                	add    $0xc5,%al
 804b072:	00 00                	add    %al,(%eax)
 804b074:	1c 00                	sbb    $0x0,%al
 804b076:	00 00                	add    %al,(%eax)
 804b078:	14 01                	adc    $0x1,%al
 804b07a:	00 00                	add    %al,(%eax)
 804b07c:	ea dc ff ff 64 00 00 	ljmp   $0x0,$0x64ffffdc
 804b083:	00 00                	add    %al,(%eax)
 804b085:	41                   	inc    %ecx
 804b086:	0e                   	push   %cs
 804b087:	08 85 02 42 0d 05    	or     %al,0x50d4202(%ebp)
 804b08d:	02 60 c5             	add    -0x3b(%eax),%ah
 804b090:	0c 04                	or     $0x4,%al
 804b092:	04 00                	add    $0x0,%al
 804b094:	18 00                	sbb    %al,(%eax)
 804b096:	00 00                	add    %al,(%eax)
 804b098:	34 01                	xor    $0x1,%al
 804b09a:	00 00                	add    %al,(%eax)
 804b09c:	2e                   	cs
 804b09d:	dd ff                	(bad)  
 804b09f:	ff 56 00             	call   *0x0(%esi)
 804b0a2:	00 00                	add    %al,(%eax)
 804b0a4:	00 41 0e             	add    %al,0xe(%ecx)
 804b0a7:	08 85 02 42 0d 05    	or     %al,0x50d4202(%ebp)
 804b0ad:	00 00                	add    %al,(%eax)
 804b0af:	00 18                	add    %bl,(%eax)
 804b0b1:	00 00                	add    %al,(%eax)
 804b0b3:	00 50 01             	add    %dl,0x1(%eax)
 804b0b6:	00 00                	add    %al,(%eax)
 804b0b8:	68 dd ff ff 2a       	push   $0x2affffdd
 804b0bd:	00 00                	add    %al,(%eax)
 804b0bf:	00 00                	add    %al,(%eax)
 804b0c1:	41                   	inc    %ecx
 804b0c2:	0e                   	push   %cs
 804b0c3:	08 85 02 42 0d 05    	or     %al,0x50d4202(%ebp)
 804b0c9:	00 00                	add    %al,(%eax)
 804b0cb:	00 18                	add    %bl,(%eax)
 804b0cd:	00 00                	add    %al,(%eax)
 804b0cf:	00 6c 01 00          	add    %ch,0x0(%ecx,%eax,1)
 804b0d3:	00 76 dd             	add    %dh,-0x23(%esi)
 804b0d6:	ff                   	(bad)  
 804b0d7:	ff 2a                	ljmp   *(%edx)
 804b0d9:	00 00                	add    %al,(%eax)
 804b0db:	00 00                	add    %al,(%eax)
 804b0dd:	41                   	inc    %ecx
 804b0de:	0e                   	push   %cs
 804b0df:	08 85 02 42 0d 05    	or     %al,0x50d4202(%ebp)
 804b0e5:	00 00                	add    %al,(%eax)
 804b0e7:	00 18                	add    %bl,(%eax)
 804b0e9:	00 00                	add    %al,(%eax)
 804b0eb:	00 88 01 00 00 84    	add    %cl,-0x7bffffff(%eax)
 804b0f1:	dd ff                	(bad)  
 804b0f3:	ff 2a                	ljmp   *(%edx)
 804b0f5:	00 00                	add    %al,(%eax)
 804b0f7:	00 00                	add    %al,(%eax)
 804b0f9:	41                   	inc    %ecx
 804b0fa:	0e                   	push   %cs
 804b0fb:	08 85 02 42 0d 05    	or     %al,0x50d4202(%ebp)
 804b101:	00 00                	add    %al,(%eax)
 804b103:	00 1c 00             	add    %bl,(%eax,%eax,1)
 804b106:	00 00                	add    %al,(%eax)
 804b108:	a4                   	movsb  %ds:(%esi),%es:(%edi)
 804b109:	01 00                	add    %eax,(%eax)
 804b10b:	00 92 dd ff ff a9    	add    %dl,-0x56000023(%edx)
 804b111:	00 00                	add    %al,(%eax)
 804b113:	00 00                	add    %al,(%eax)
 804b115:	41                   	inc    %ecx
 804b116:	0e                   	push   %cs
 804b117:	08 85 02 42 0d 05    	or     %al,0x50d4202(%ebp)
 804b11d:	02 a5 c5 0c 04 04    	add    0x4040cc5(%ebp),%ah
 804b123:	00 1c 00             	add    %bl,(%eax,%eax,1)
 804b126:	00 00                	add    %al,(%eax)
 804b128:	c4 01                	les    (%ecx),%eax
 804b12a:	00 00                	add    %al,(%eax)
 804b12c:	1b de                	sbb    %esi,%ebx
 804b12e:	ff                   	(bad)  
 804b12f:	ff                   	(bad)  
 804b130:	dc 00                	faddl  (%eax)
 804b132:	00 00                	add    %al,(%eax)
 804b134:	00 41 0e             	add    %al,0xe(%ecx)
 804b137:	08 85 02 42 0d 05    	or     %al,0x50d4202(%ebp)
 804b13d:	02 d8                	add    %al,%bl
 804b13f:	c5 0c 04             	lds    (%esp,%eax,1),%ecx
 804b142:	04 00                	add    $0x0,%al
 804b144:	1c 00                	sbb    $0x0,%al
 804b146:	00 00                	add    %al,(%eax)
 804b148:	e4 01                	in     $0x1,%al
 804b14a:	00 00                	add    %al,(%eax)
 804b14c:	d7                   	xlat   %ds:(%ebx)
 804b14d:	de ff                	fdivrp %st,%st(7)
 804b14f:	ff 1a                	lcall  *(%edx)
 804b151:	00 00                	add    %al,(%eax)
 804b153:	00 00                	add    %al,(%eax)
 804b155:	41                   	inc    %ecx
 804b156:	0e                   	push   %cs
 804b157:	08 85 02 42 0d 05    	or     %al,0x50d4202(%ebp)
 804b15d:	56                   	push   %esi
 804b15e:	c5 0c 04             	lds    (%esp,%eax,1),%ecx
 804b161:	04 00                	add    $0x0,%al
 804b163:	00 20                	add    %ah,(%eax)
 804b165:	00 00                	add    %al,(%eax)
 804b167:	00 04 02             	add    %al,(%edx,%eax,1)
 804b16a:	00 00                	add    %al,(%eax)
 804b16c:	d1 de                	rcr    %esi
 804b16e:	ff                   	(bad)  
 804b16f:	ff 45 02             	incl   0x2(%ebp)
 804b172:	00 00                	add    %al,(%eax)
 804b174:	00 41 0e             	add    %al,0xe(%ecx)
 804b177:	08 85 02 42 0d 05    	or     %al,0x50d4202(%ebp)
 804b17d:	6e                   	outsb  %ds:(%esi),(%dx)
 804b17e:	83 03 03             	addl   $0x3,(%ebx)
 804b181:	13 02                	adc    (%edx),%eax
 804b183:	c5 0c 04             	lds    (%esp,%eax,1),%ecx
 804b186:	04 c3                	add    $0xc3,%al
 804b188:	1c 00                	sbb    $0x0,%al
 804b18a:	00 00                	add    %al,(%eax)
 804b18c:	28 02                	sub    %al,(%edx)
 804b18e:	00 00                	add    %al,(%eax)
 804b190:	f4                   	hlt    
 804b191:	e0 ff                	loopne 804b192 <_IO_stdin_used+0xbe6>
 804b193:	ff 18                	lcall  *(%eax)
 804b195:	00 00                	add    %al,(%eax)
 804b197:	00 00                	add    %al,(%eax)
 804b199:	41                   	inc    %ecx
 804b19a:	0e                   	push   %cs
 804b19b:	08 85 02 42 0d 05    	or     %al,0x50d4202(%ebp)
 804b1a1:	54                   	push   %esp
 804b1a2:	c5 0c 04             	lds    (%esp,%eax,1),%ecx
 804b1a5:	04 00                	add    $0x0,%al
 804b1a7:	00 1c 00             	add    %bl,(%eax,%eax,1)
 804b1aa:	00 00                	add    %al,(%eax)
 804b1ac:	48                   	dec    %eax
 804b1ad:	02 00                	add    (%eax),%al
 804b1af:	00 ec                	add    %ch,%ah
 804b1b1:	e0 ff                	loopne 804b1b2 <_IO_stdin_used+0xc06>
 804b1b3:	ff 1e                	lcall  *(%esi)
 804b1b5:	00 00                	add    %al,(%eax)
 804b1b7:	00 00                	add    %al,(%eax)
 804b1b9:	41                   	inc    %ecx
 804b1ba:	0e                   	push   %cs
 804b1bb:	08 85 02 42 0d 05    	or     %al,0x50d4202(%ebp)
 804b1c1:	5a                   	pop    %edx
 804b1c2:	c5 0c 04             	lds    (%esp,%eax,1),%ecx
 804b1c5:	04 00                	add    $0x0,%al
 804b1c7:	00 1c 00             	add    %bl,(%eax,%eax,1)
 804b1ca:	00 00                	add    %al,(%eax)
 804b1cc:	68 02 00 00 ec       	push   $0xec000002
 804b1d1:	e0 ff                	loopne 804b1d2 <_IO_stdin_used+0xc26>
 804b1d3:	ff 72 01             	pushl  0x1(%edx)
 804b1d6:	00 00                	add    %al,(%eax)
 804b1d8:	00 41 0e             	add    %al,0xe(%ecx)
 804b1db:	08 85 02 42 0d 05    	or     %al,0x50d4202(%ebp)
 804b1e1:	03 6e 01             	add    0x1(%esi),%ebp
 804b1e4:	c5 0c 04             	lds    (%esp,%eax,1),%ecx
 804b1e7:	04 24                	add    $0x24,%al
 804b1e9:	00 00                	add    %al,(%eax)
 804b1eb:	00 88 02 00 00 3e    	add    %cl,0x3e000002(%eax)
 804b1f1:	e2 ff                	loop   804b1f2 <_IO_stdin_used+0xc46>
 804b1f3:	ff 9a 01 00 00 00    	lcall  *0x1(%edx)
 804b1f9:	41                   	inc    %ecx
 804b1fa:	0e                   	push   %cs
 804b1fb:	08 85 02 42 0d 05    	or     %al,0x50d4202(%ebp)
 804b201:	5b                   	pop    %ebx
 804b202:	87 03                	xchg   %eax,(%ebx)
 804b204:	03 7a 01             	add    0x1(%edx),%edi
 804b207:	c7 41 0c 04 04 c5 00 	movl   $0xc50404,0xc(%ecx)
 804b20e:	00 00                	add    %al,(%eax)
 804b210:	18 00                	sbb    %al,(%eax)
 804b212:	00 00                	add    %al,(%eax)
 804b214:	b0 02                	mov    $0x2,%al
 804b216:	00 00                	add    %al,(%eax)
 804b218:	b0 e3                	mov    $0xe3,%al
 804b21a:	ff                   	(bad)  
 804b21b:	ff 27                	jmp    *(%edi)
 804b21d:	00 00                	add    %al,(%eax)
 804b21f:	00 00                	add    %al,(%eax)
 804b221:	41                   	inc    %ecx
 804b222:	0e                   	push   %cs
 804b223:	08 85 02 42 0d 05    	or     %al,0x50d4202(%ebp)
 804b229:	00 00                	add    %al,(%eax)
 804b22b:	00 1c 00             	add    %bl,(%eax,%eax,1)
 804b22e:	00 00                	add    %al,(%eax)
 804b230:	cc                   	int3   
 804b231:	02 00                	add    (%eax),%al
 804b233:	00 bb e3 ff ff 23    	add    %bh,0x23ffffe3(%ebx)
 804b239:	00 00                	add    %al,(%eax)
 804b23b:	00 00                	add    %al,(%eax)
 804b23d:	41                   	inc    %ecx
 804b23e:	0e                   	push   %cs
 804b23f:	08 85 02 42 0d 05    	or     %al,0x50d4202(%ebp)
 804b245:	5f                   	pop    %edi
 804b246:	0c 04                	or     $0x4,%al
 804b248:	04 c5                	add    $0xc5,%al
 804b24a:	00 00                	add    %al,(%eax)
 804b24c:	1c 00                	sbb    $0x0,%al
 804b24e:	00 00                	add    %al,(%eax)
 804b250:	ec                   	in     (%dx),%al
 804b251:	02 00                	add    (%eax),%al
 804b253:	00 be e3 ff ff d3    	add    %bh,-0x2c00001d(%esi)
 804b259:	00 00                	add    %al,(%eax)
 804b25b:	00 00                	add    %al,(%eax)
 804b25d:	41                   	inc    %ecx
 804b25e:	0e                   	push   %cs
 804b25f:	08 85 02 42 0d 05    	or     %al,0x50d4202(%ebp)
 804b265:	02 cf                	add    %bh,%cl
 804b267:	c5 0c 04             	lds    (%esp,%eax,1),%ecx
 804b26a:	04 00                	add    $0x0,%al
 804b26c:	1c 00                	sbb    $0x0,%al
 804b26e:	00 00                	add    %al,(%eax)
 804b270:	0c 03                	or     $0x3,%al
 804b272:	00 00                	add    %al,(%eax)
 804b274:	71 e4                	jno    804b25a <_IO_stdin_used+0xcae>
 804b276:	ff                   	(bad)  
 804b277:	ff 83 00 00 00 00    	incl   0x0(%ebx)
 804b27d:	41                   	inc    %ecx
 804b27e:	0e                   	push   %cs
 804b27f:	08 85 02 42 0d 05    	or     %al,0x50d4202(%ebp)
 804b285:	02 7f c5             	add    -0x3b(%edi),%bh
 804b288:	0c 04                	or     $0x4,%al
 804b28a:	04 00                	add    $0x0,%al
 804b28c:	1c 00                	sbb    $0x0,%al
 804b28e:	00 00                	add    %al,(%eax)
 804b290:	2c 03                	sub    $0x3,%al
 804b292:	00 00                	add    %al,(%eax)
 804b294:	d4 e4                	aam    $0xe4
 804b296:	ff                   	(bad)  
 804b297:	ff 69 00             	ljmp   *0x0(%ecx)
 804b29a:	00 00                	add    %al,(%eax)
 804b29c:	00 41 0e             	add    %al,0xe(%ecx)
 804b29f:	08 85 02 42 0d 05    	or     %al,0x50d4202(%ebp)
 804b2a5:	02 65 c5             	add    -0x3b(%ebp),%ah
 804b2a8:	0c 04                	or     $0x4,%al
 804b2aa:	04 00                	add    $0x0,%al
 804b2ac:	24 00                	and    $0x0,%al
 804b2ae:	00 00                	add    %al,(%eax)
 804b2b0:	4c                   	dec    %esp
 804b2b1:	03 00                	add    (%eax),%eax
 804b2b3:	00 1d e5 ff ff 7b    	add    %bl,0x7bffffe5
 804b2b9:	01 00                	add    %eax,(%eax)
 804b2bb:	00 00                	add    %al,(%eax)
 804b2bd:	41                   	inc    %ecx
 804b2be:	0e                   	push   %cs
 804b2bf:	08 85 02 42 0d 05    	or     %al,0x50d4202(%ebp)
 804b2c5:	71 87                	jno    804b24e <_IO_stdin_used+0xca2>
 804b2c7:	03 03                	add    (%ebx),%eax
 804b2c9:	45                   	inc    %ebp
 804b2ca:	01 c7                	add    %eax,%edi
 804b2cc:	41                   	inc    %ecx
 804b2cd:	0c 04                	or     $0x4,%al
 804b2cf:	04 c5                	add    $0xc5,%al
 804b2d1:	00 00                	add    %al,(%eax)
 804b2d3:	00 2c 00             	add    %ch,(%eax,%eax,1)
 804b2d6:	00 00                	add    %al,(%eax)
 804b2d8:	74 03                	je     804b2dd <_IO_stdin_used+0xd31>
 804b2da:	00 00                	add    %al,(%eax)
 804b2dc:	70 e6                	jo     804b2c4 <_IO_stdin_used+0xd18>
 804b2de:	ff                   	(bad)  
 804b2df:	ff e6                	jmp    *%esi
 804b2e1:	07                   	pop    %es
 804b2e2:	00 00                	add    %al,(%eax)
 804b2e4:	00 41 0e             	add    %al,0xe(%ecx)
 804b2e7:	08 85 02 42 0d 05    	or     %al,0x50d4202(%ebp)
 804b2ed:	02 6b 83             	add    -0x7d(%ebx),%ch
 804b2f0:	05 86 04 87 03       	add    $0x3870486,%eax
 804b2f5:	03 74 07 c3          	add    -0x3d(%edi,%eax,1),%esi
 804b2f9:	41                   	inc    %ecx
 804b2fa:	c6 41 c7 41          	movb   $0x41,-0x39(%ecx)
 804b2fe:	0c 04                	or     $0x4,%al
 804b300:	04 c5                	add    $0xc5,%al
 804b302:	00 00                	add    %al,(%eax)
 804b304:	1c 00                	sbb    $0x0,%al
 804b306:	00 00                	add    %al,(%eax)
 804b308:	a4                   	movsb  %ds:(%esi),%es:(%edi)
 804b309:	03 00                	add    (%eax),%eax
 804b30b:	00 26                	add    %ah,(%esi)
 804b30d:	ee                   	out    %al,(%dx)
 804b30e:	ff                   	(bad)  
 804b30f:	ff                   	(bad)  
 804b310:	3d 00 00 00 00       	cmp    $0x0,%eax
 804b315:	41                   	inc    %ecx
 804b316:	0e                   	push   %cs
 804b317:	08 85 02 42 0d 05    	or     %al,0x50d4202(%ebp)
 804b31d:	79 c5                	jns    804b2e4 <_IO_stdin_used+0xd38>
 804b31f:	0c 04                	or     $0x4,%al
 804b321:	04 00                	add    $0x0,%al
 804b323:	00 1c 00             	add    %bl,(%eax,%eax,1)
 804b326:	00 00                	add    %al,(%eax)
 804b328:	c4 03                	les    (%ebx),%eax
 804b32a:	00 00                	add    %al,(%eax)
 804b32c:	43                   	inc    %ebx
 804b32d:	ee                   	out    %al,(%dx)
 804b32e:	ff                   	(bad)  
 804b32f:	ff                   	(bad)  
 804b330:	fe 01                	incb   (%ecx)
 804b332:	00 00                	add    %al,(%eax)
 804b334:	00 41 0e             	add    %al,0xe(%ecx)
 804b337:	08 85 02 42 0d 05    	or     %al,0x50d4202(%ebp)
 804b33d:	03 fa                	add    %edx,%edi
 804b33f:	01 c5                	add    %eax,%ebp
 804b341:	0c 04                	or     $0x4,%al
 804b343:	04 1c                	add    $0x1c,%al
 804b345:	00 00                	add    %al,(%eax)
 804b347:	00 e4                	add    %ah,%ah
 804b349:	03 00                	add    (%eax),%eax
 804b34b:	00 21                	add    %ah,(%ecx)
 804b34d:	f0 ff                	lock (bad) 
 804b34f:	ff a9 00 00 00 00    	ljmp   *0x0(%ecx)
 804b355:	41                   	inc    %ecx
 804b356:	0e                   	push   %cs
 804b357:	08 85 02 42 0d 05    	or     %al,0x50d4202(%ebp)
 804b35d:	02 a5 c5 0c 04 04    	add    0x4040cc5(%ebp),%ah
 804b363:	00 1c 00             	add    %bl,(%eax,%eax,1)
 804b366:	00 00                	add    %al,(%eax)
 804b368:	04 04                	add    $0x4,%al
 804b36a:	00 00                	add    %al,(%eax)
 804b36c:	ac                   	lods   %ds:(%esi),%al
 804b36d:	f0 ff                	lock (bad) 
 804b36f:	ff 36                	pushl  (%esi)
 804b371:	00 00                	add    %al,(%eax)
 804b373:	00 00                	add    %al,(%eax)
 804b375:	41                   	inc    %ecx
 804b376:	0e                   	push   %cs
 804b377:	08 85 02 42 0d 05    	or     %al,0x50d4202(%ebp)
 804b37d:	72 c5                	jb     804b344 <_IO_stdin_used+0xd98>
 804b37f:	0c 04                	or     $0x4,%al
 804b381:	04 00                	add    $0x0,%al
 804b383:	00 20                	add    %ah,(%eax)
 804b385:	00 00                	add    %al,(%eax)
 804b387:	00 24 04             	add    %ah,(%esp,%eax,1)
 804b38a:	00 00                	add    %al,(%eax)
 804b38c:	c2 f0 ff             	ret    $0xfff0
 804b38f:	ff 55 00             	call   *0x0(%ebp)
 804b392:	00 00                	add    %al,(%eax)
 804b394:	00 41 0e             	add    %al,0xe(%ecx)
 804b397:	08 85 02 42 0d 05    	or     %al,0x50d4202(%ebp)
 804b39d:	4e                   	dec    %esi
 804b39e:	83 03 02             	addl   $0x2,(%ebx)
 804b3a1:	42                   	inc    %edx
 804b3a2:	c3                   	ret    
 804b3a3:	41                   	inc    %ecx
 804b3a4:	0c 04                	or     $0x4,%al
 804b3a6:	04 c5                	add    $0xc5,%al
 804b3a8:	1c 00                	sbb    $0x0,%al
 804b3aa:	00 00                	add    %al,(%eax)
 804b3ac:	48                   	dec    %eax
 804b3ad:	04 00                	add    $0x0,%al
 804b3af:	00 f3                	add    %dh,%bl
 804b3b1:	f0 ff                	lock (bad) 
 804b3b3:	ff 35 00 00 00 00    	pushl  0x0
 804b3b9:	41                   	inc    %ecx
 804b3ba:	0e                   	push   %cs
 804b3bb:	08 85 02 42 0d 05    	or     %al,0x50d4202(%ebp)
 804b3c1:	71 c5                	jno    804b388 <_IO_stdin_used+0xddc>
 804b3c3:	0c 04                	or     $0x4,%al
 804b3c5:	04 00                	add    $0x0,%al
 804b3c7:	00 38                	add    %bh,(%eax)
 804b3c9:	00 00                	add    %al,(%eax)
 804b3cb:	00 68 04             	add    %ch,0x4(%eax)
 804b3ce:	00 00                	add    %al,(%eax)
 804b3d0:	10 f1                	adc    %dh,%cl
 804b3d2:	ff                   	(bad)  
 804b3d3:	ff 61 00             	jmp    *0x0(%ecx)
 804b3d6:	00 00                	add    %al,(%eax)
 804b3d8:	00 41 0e             	add    %al,0xe(%ecx)
 804b3db:	08 85 02 41 0e 0c    	or     %al,0xc0e4102(%ebp)
 804b3e1:	87 03                	xchg   %eax,(%ebx)
 804b3e3:	41                   	inc    %ecx
 804b3e4:	0e                   	push   %cs
 804b3e5:	10 86 04 41 0e 14    	adc    %al,0x140e4104(%esi)
 804b3eb:	83 05 4e 0e 30 02 4a 	addl   $0x4a,0x2300e4e
 804b3f2:	0e                   	push   %cs
 804b3f3:	14 41                	adc    $0x41,%al
 804b3f5:	0e                   	push   %cs
 804b3f6:	10 c3                	adc    %al,%bl
 804b3f8:	41                   	inc    %ecx
 804b3f9:	0e                   	push   %cs
 804b3fa:	0c c6                	or     $0xc6,%al
 804b3fc:	41                   	inc    %ecx
 804b3fd:	0e                   	push   %cs
 804b3fe:	08 c7                	or     %al,%bh
 804b400:	41                   	inc    %ecx
 804b401:	0e                   	push   %cs
 804b402:	04 c5                	add    $0xc5,%al
 804b404:	10 00                	adc    %al,(%eax)
 804b406:	00 00                	add    %al,(%eax)
 804b408:	a4                   	movsb  %ds:(%esi),%es:(%edi)
 804b409:	04 00                	add    $0x0,%al
 804b40b:	00 44 f1 ff          	add    %al,-0x1(%ecx,%esi,8)
 804b40f:	ff 02                	incl   (%edx)
 804b411:	00 00                	add    %al,(%eax)
 804b413:	00 00                	add    %al,(%eax)
 804b415:	00 00                	add    %al,(%eax)
 804b417:	00 10                	add    %dl,(%eax)
 804b419:	00 00                	add    %al,(%eax)
 804b41b:	00 b8 04 00 00 32    	add    %bh,0x32000004(%eax)
 804b421:	f1                   	icebp  
 804b422:	ff                   	(bad)  
 804b423:	ff 04 00             	incl   (%eax,%eax,1)
 804b426:	00 00                	add    %al,(%eax)
 804b428:	00 00                	add    %al,(%eax)
	...

0804b42c <__FRAME_END__>:
 804b42c:	00 00                	add    %al,(%eax)
	...

Disassembly of section .ctors:

0804cf14 <__CTOR_LIST__>:
 804cf14:	ff                   	(bad)  
 804cf15:	ff                   	(bad)  
 804cf16:	ff                   	(bad)  
 804cf17:	ff 00                	incl   (%eax)

0804cf18 <__CTOR_END__>:
 804cf18:	00 00                	add    %al,(%eax)
	...

Disassembly of section .dtors:

0804cf1c <__DTOR_LIST__>:
 804cf1c:	ff                   	(bad)  
 804cf1d:	ff                   	(bad)  
 804cf1e:	ff                   	(bad)  
 804cf1f:	ff 00                	incl   (%eax)

0804cf20 <__DTOR_END__>:
 804cf20:	00 00                	add    %al,(%eax)
	...

Disassembly of section .jcr:

0804cf24 <__JCR_END__>:
 804cf24:	00 00                	add    %al,(%eax)
	...

Disassembly of section .dynamic:

0804cf28 <_DYNAMIC>:
 804cf28:	01 00                	add    %eax,(%eax)
 804cf2a:	00 00                	add    %al,(%eax)
 804cf2c:	10 00                	adc    %al,(%eax)
 804cf2e:	00 00                	add    %al,(%eax)
 804cf30:	0c 00                	or     $0x0,%al
 804cf32:	00 00                	add    %al,(%eax)
 804cf34:	c4 87 04 08 0d 00    	les    0xd0804(%edi),%eax
 804cf3a:	00 00                	add    %al,(%eax)
 804cf3c:	8c a5 04 08 f5 fe    	mov    %fs,-0x10af7fc(%ebp)
 804cf42:	ff 6f cc             	ljmp   *-0x34(%edi)
 804cf45:	81 04 08 05 00 00 00 	addl   $0x5,(%eax,%ecx,1)
 804cf4c:	8c 84 04 08 06 00 00 	mov    %es,0x608(%esp,%eax,1)
 804cf53:	00 fc                	add    %bh,%ah
 804cf55:	81 04 08 0a 00 00 00 	addl   $0xa,(%eax,%ecx,1)
 804cf5c:	64 01 00             	add    %eax,%fs:(%eax)
 804cf5f:	00 0b                	add    %cl,(%ebx)
 804cf61:	00 00                	add    %al,(%eax)
 804cf63:	00 10                	add    %dl,(%eax)
 804cf65:	00 00                	add    %al,(%eax)
 804cf67:	00 15 00 00 00 00    	add    %dl,0x0
 804cf6d:	00 00                	add    %al,(%eax)
 804cf6f:	00 03                	add    %al,(%ebx)
 804cf71:	00 00                	add    %al,(%eax)
 804cf73:	00 f4                	add    %dh,%ah
 804cf75:	cf                   	iret   
 804cf76:	04 08                	add    $0x8,%al
 804cf78:	02 00                	add    (%eax),%al
 804cf7a:	00 00                	add    %al,(%eax)
 804cf7c:	20 01                	and    %al,(%ecx)
 804cf7e:	00 00                	add    %al,(%eax)
 804cf80:	14 00                	adc    $0x0,%al
 804cf82:	00 00                	add    %al,(%eax)
 804cf84:	11 00                	adc    %eax,(%eax)
 804cf86:	00 00                	add    %al,(%eax)
 804cf88:	17                   	pop    %ss
 804cf89:	00 00                	add    %al,(%eax)
 804cf8b:	00 a4 86 04 08 11 00 	add    %ah,0x110804(%esi,%eax,4)
 804cf92:	00 00                	add    %al,(%eax)
 804cf94:	84 86 04 08 12 00    	test   %al,0x120804(%esi)
 804cf9a:	00 00                	add    %al,(%eax)
 804cf9c:	20 00                	and    %al,(%eax)
 804cf9e:	00 00                	add    %al,(%eax)
 804cfa0:	13 00                	adc    (%eax),%eax
 804cfa2:	00 00                	add    %al,(%eax)
 804cfa4:	08 00                	or     %al,(%eax)
 804cfa6:	00 00                	add    %al,(%eax)
 804cfa8:	fe                   	(bad)  
 804cfa9:	ff                   	(bad)  
 804cfaa:	ff 6f 44             	ljmp   *0x44(%edi)
 804cfad:	86 04 08             	xchg   %al,(%eax,%ecx,1)
 804cfb0:	ff                   	(bad)  
 804cfb1:	ff                   	(bad)  
 804cfb2:	ff 6f 01             	ljmp   *0x1(%edi)
 804cfb5:	00 00                	add    %al,(%eax)
 804cfb7:	00 f0                	add    %dh,%al
 804cfb9:	ff                   	(bad)  
 804cfba:	ff 6f f0             	ljmp   *-0x10(%edi)
 804cfbd:	85 04 08             	test   %eax,(%eax,%ecx,1)
	...

Disassembly of section .got:

0804cff0 <.got>:
 804cff0:	00 00                	add    %al,(%eax)
	...

Disassembly of section .got.plt:

0804cff4 <_GLOBAL_OFFSET_TABLE_>:
 804cff4:	28 cf                	sub    %cl,%bh
 804cff6:	04 08                	add    $0x8,%al
	...
 804d000:	16                   	push   %ss
 804d001:	88 04 08             	mov    %al,(%eax,%ecx,1)
 804d004:	26 88 04 08          	mov    %al,%es:(%eax,%ecx,1)
 804d008:	36 88 04 08          	mov    %al,%ss:(%eax,%ecx,1)
 804d00c:	46                   	inc    %esi
 804d00d:	88 04 08             	mov    %al,(%eax,%ecx,1)
 804d010:	56                   	push   %esi
 804d011:	88 04 08             	mov    %al,(%eax,%ecx,1)
 804d014:	66                   	data16
 804d015:	88 04 08             	mov    %al,(%eax,%ecx,1)
 804d018:	76 88                	jbe    804cfa2 <_DYNAMIC+0x7a>
 804d01a:	04 08                	add    $0x8,%al
 804d01c:	86 88 04 08 96 88    	xchg   %cl,-0x7769f7fc(%eax)
 804d022:	04 08                	add    $0x8,%al
 804d024:	a6                   	cmpsb  %es:(%edi),%ds:(%esi)
 804d025:	88 04 08             	mov    %al,(%eax,%ecx,1)
 804d028:	b6 88                	mov    $0x88,%dh
 804d02a:	04 08                	add    $0x8,%al
 804d02c:	c6                   	(bad)  
 804d02d:	88 04 08             	mov    %al,(%eax,%ecx,1)
 804d030:	d6                   	(bad)  
 804d031:	88 04 08             	mov    %al,(%eax,%ecx,1)
 804d034:	e6 88                	out    %al,$0x88
 804d036:	04 08                	add    $0x8,%al
 804d038:	f6                   	(bad)  
 804d039:	88 04 08             	mov    %al,(%eax,%ecx,1)
 804d03c:	06                   	push   %es
 804d03d:	89 04 08             	mov    %eax,(%eax,%ecx,1)
 804d040:	16                   	push   %ss
 804d041:	89 04 08             	mov    %eax,(%eax,%ecx,1)
 804d044:	26 89 04 08          	mov    %eax,%es:(%eax,%ecx,1)
 804d048:	36 89 04 08          	mov    %eax,%ss:(%eax,%ecx,1)
 804d04c:	46                   	inc    %esi
 804d04d:	89 04 08             	mov    %eax,(%eax,%ecx,1)
 804d050:	56                   	push   %esi
 804d051:	89 04 08             	mov    %eax,(%eax,%ecx,1)
 804d054:	66 89 04 08          	mov    %ax,(%eax,%ecx,1)
 804d058:	76 89                	jbe    804cfe3 <_DYNAMIC+0xbb>
 804d05a:	04 08                	add    $0x8,%al
 804d05c:	86 89 04 08 96 89    	xchg   %cl,-0x7669f7fc(%ecx)
 804d062:	04 08                	add    $0x8,%al
 804d064:	a6                   	cmpsb  %es:(%edi),%ds:(%esi)
 804d065:	89 04 08             	mov    %eax,(%eax,%ecx,1)
 804d068:	b6 89                	mov    $0x89,%dh
 804d06a:	04 08                	add    $0x8,%al
 804d06c:	c6                   	(bad)  
 804d06d:	89 04 08             	mov    %eax,(%eax,%ecx,1)
 804d070:	d6                   	(bad)  
 804d071:	89 04 08             	mov    %eax,(%eax,%ecx,1)
 804d074:	e6 89                	out    %al,$0x89
 804d076:	04 08                	add    $0x8,%al
 804d078:	f6                   	(bad)  
 804d079:	89 04 08             	mov    %eax,(%eax,%ecx,1)
 804d07c:	06                   	push   %es
 804d07d:	8a 04 08             	mov    (%eax,%ecx,1),%al
 804d080:	16                   	push   %ss
 804d081:	8a 04 08             	mov    (%eax,%ecx,1),%al
 804d084:	26 8a 04 08          	mov    %es:(%eax,%ecx,1),%al
 804d088:	36 8a 04 08          	mov    %ss:(%eax,%ecx,1),%al
 804d08c:	46                   	inc    %esi
 804d08d:	8a 04 08             	mov    (%eax,%ecx,1),%al

Disassembly of section .data:

0804d0a0 <__data_start>:
 804d0a0:	00 00                	add    %al,(%eax)
	...

0804d0a4 <__dso_handle>:
 804d0a4:	00 00                	add    %al,(%eax)
	...

0804d0a8 <trans_char>:
 804d0a8:	30 31                	xor    %dh,(%ecx)
 804d0aa:	32 33                	xor    (%ebx),%dh
 804d0ac:	34 35                	xor    $0x35,%al
 804d0ae:	36                   	ss
 804d0af:	37                   	aaa    
 804d0b0:	38 39                	cmp    %bh,(%ecx)
 804d0b2:	41                   	inc    %ecx
 804d0b3:	42                   	inc    %edx
 804d0b4:	43                   	inc    %ebx
 804d0b5:	44                   	inc    %esp
 804d0b6:	45                   	inc    %ebp
 804d0b7:	46                   	inc    %esi
	...

0804d0c0 <host_table>:
 804d0c0:	38 a9 04 08 50 a9    	cmp    %ch,-0x56aff7fc(%ecx)
 804d0c6:	04 08                	add    $0x8,%al
 804d0c8:	6a a9                	push   $0xffffffa9
 804d0ca:	04 08                	add    $0x8,%al
 804d0cc:	84 a9 04 08 00 00    	test   %ch,0x804(%ecx)
	...

0804e0c0 <level_counts>:
 804e0c0:	01 00                	add    %eax,(%eax)
 804e0c2:	00 00                	add    %al,(%eax)
 804e0c4:	01 00                	add    %eax,(%eax)
 804e0c6:	00 00                	add    %al,(%eax)
 804e0c8:	01 00                	add    %eax,(%eax)
 804e0ca:	00 00                	add    %al,(%eax)
 804e0cc:	01 00                	add    %eax,(%eax)
 804e0ce:	00 00                	add    %al,(%eax)
 804e0d0:	05                   	.byte 0x5
 804e0d1:	00 00                	add    %al,(%eax)
	...

Disassembly of section .bss:

0804e0e0 <stderr@@GLIBC_2.0>:
 804e0e0:	00 00                	add    %al,(%eax)
	...

0804e0e4 <stdin@@GLIBC_2.0>:
 804e0e4:	00 00                	add    %al,(%eax)
	...

0804e0e8 <optarg@@GLIBC_2.0>:
 804e0e8:	00 00                	add    %al,(%eax)
	...

0804e0ec <completed.6159>:
 804e0ec:	00 00                	add    %al,(%eax)
	...

0804e0f0 <dtor_idx.6161>:
 804e0f0:	00 00                	add    %al,(%eax)
	...

0804e0f4 <userid>:
 804e0f4:	00 00                	add    %al,(%eax)
	...

0804e0f8 <notify>:
 804e0f8:	00 00                	add    %al,(%eax)
	...

0804e0fc <autograde>:
 804e0fc:	00 00                	add    %al,(%eax)
	...

0804e100 <infile>:
 804e100:	00 00                	add    %al,(%eax)
	...

0804e104 <cookie>:
 804e104:	00 00                	add    %al,(%eax)
	...

0804e108 <success>:
 804e108:	00 00                	add    %al,(%eax)
	...

0804e10c <global_value>:
 804e10c:	00 00                	add    %al,(%eax)
	...

0804e110 <gets_cnt>:
 804e110:	00 00                	add    %al,(%eax)
	...

0804e114 <global_nitro>:
 804e114:	00 00                	add    %al,(%eax)
	...

0804e118 <global_offset>:
 804e118:	00 00                	add    %al,(%eax)
	...

0804e11c <global_save_stack>:
 804e11c:	00 00                	add    %al,(%eax)
	...

0804e120 <stack_top>:
	...

0804e140 <gets_buf>:
	...

Disassembly of section .comment:

00000000 <.comment>:
   0:	47                   	inc    %edi
   1:	43                   	inc    %ebx
   2:	43                   	inc    %ebx
   3:	3a 20                	cmp    (%eax),%ah
   5:	28 55 62             	sub    %dl,0x62(%ebp)
   8:	75 6e                	jne    78 <_init-0x804874c>
   a:	74 75                	je     81 <_init-0x8048743>
   c:	2f                   	das    
   d:	4c                   	dec    %esp
   e:	69 6e 61 72 6f 20 34 	imul   $0x34206f72,0x61(%esi),%ebp
  15:	2e 36 2e 33 2d 31 75 	cs ss xor %cs:%ss:0x75627531,%ebp
  1c:	62 75 
  1e:	6e                   	outsb  %ds:(%esi),(%dx)
  1f:	74 75                	je     96 <_init-0x804872e>
  21:	35 29 20 34 2e       	xor    $0x2e342029,%eax
  26:	36 2e 33 00          	ss xor %cs:%ss:(%eax),%eax
